---
triple:          'x86_64-apple-darwin'
binary-path:     '/Users/macbook/Downloads/BK-HCM/DataStructureAndAlgorithms/DSA-231/closestKPoint'
relocations:
  - { offsetInCU: 0x313B, offset: 0x313B, size: 0x8, addend: 0x0, symName: __ZNSt3__124__put_character_sequenceB7v160006IcNS_11char_traitsIcEEEERNS_13basic_ostreamIT_T0_EES7_PKS4_m, symObjAddr: 0x710, symBinAddr: 0x100000EB0, symSize: 0x1F0 }
  - { offsetInCU: 0x767D, offset: 0x767D, size: 0x8, addend: 0x0, symName: '__ZNSt3__111__introsortINS_17_ClassicAlgPolicyERZ14closestKPointsP5PointiRS2_iE3$_0PNS_4pairIS2_dEEEEvT1_SA_T0_NS_15iterator_traitsISA_E15difference_typeE', symObjAddr: 0x49A0, symBinAddr: 0x100005140, symSize: 0x690 }
  - { offsetInCU: 0x77DD, offset: 0x77DD, size: 0x8, addend: 0x0, symName: '__ZNSt3__118__insertion_sort_3B7v160006INS_17_ClassicAlgPolicyERZ14closestKPointsP5PointiRS2_iE3$_0PNS_4pairIS2_dEEEEvT1_SA_T0_', symObjAddr: 0x5180, symBinAddr: 0x100005920, symSize: 0x120 }
  - { offsetInCU: 0x78B0, offset: 0x78B0, size: 0x8, addend: 0x0, symName: '__ZNSt3__111__sift_downB7v160006INS_17_ClassicAlgPolicyERZ14closestKPointsP5PointiRS2_iE3$_0PNS_4pairIS2_dEEEEvT1_OT0_NS_15iterator_traitsISA_E15difference_typeESA_', symObjAddr: 0x5B90, symBinAddr: 0x100006330, symSize: 0x1F0 }
  - { offsetInCU: 0x795D, offset: 0x795D, size: 0x8, addend: 0x0, symName: '__ZNSt3__117__floyd_sift_downB7v160006INS_17_ClassicAlgPolicyERZ14closestKPointsP5PointiRS2_iE3$_0PNS_4pairIS2_dEEEET1_SA_OT0_NS_15iterator_traitsISA_E15difference_typeE', symObjAddr: 0x5EE0, symBinAddr: 0x100006680, symSize: 0x100 }
  - { offsetInCU: 0x79F5, offset: 0x79F5, size: 0x8, addend: 0x0, symName: '__ZNSt3__127__insertion_sort_incompleteIRZ14closestKPointsP5PointiRS1_iE3$_0PNS_4pairIS1_dEEEEbT0_S9_T_', symObjAddr: 0x54C0, symBinAddr: 0x100005C60, symSize: 0x2A0 }
  - { offsetInCU: 0x87F2, offset: 0x87F2, size: 0x8, addend: 0x0, symName: __ZNSt3__19make_pairB7v160006IR5PointRdEENS_4pairINS_18__unwrap_ref_decayIT_E4typeENS5_IT0_E4typeEEEOS6_OS9_, symObjAddr: 0x390, symBinAddr: 0x100000B30, symSize: 0x30 }
  - { offsetInCU: 0x8841, offset: 0x8841, size: 0x8, addend: 0x0, symName: '__ZNSt3__14sortB7v160006INS_11__wrap_iterIPNS_4pairI5PointdEEEEZ14closestKPointsPS3_iRS3_iE3$_0EEvT_SA_T0_', symObjAddr: 0x3E0, symBinAddr: 0x100000B80, symSize: 0x40 }
  - { offsetInCU: 0x889B, offset: 0x889B, size: 0x8, addend: 0x0, symName: __ZNSt3__1lsB7v160006INS_11char_traitsIcEEEERNS_13basic_ostreamIcT_EES6_PKc, symObjAddr: 0x6D0, symBinAddr: 0x100000E70, symSize: 0x40 }
  - { offsetInCU: 0x88E1, offset: 0x88E1, size: 0x8, addend: 0x0, symName: __ZNSt3__116__pad_and_outputB7v160006IcNS_11char_traitsIcEEEENS_19ostreambuf_iteratorIT_T0_EES6_PKS4_S8_S8_RNS_8ios_baseES4_, symObjAddr: 0x950, symBinAddr: 0x1000010F0, symSize: 0x220 }
  - { offsetInCU: 0x89B1, offset: 0x89B1, size: 0x8, addend: 0x0, symName: __ZNSt3__119__debug_db_insert_cB7v160006INS_12basic_stringIcNS_11char_traitsIcEENS_9allocatorIcEEEEEEvPT_, symObjAddr: 0xDF0, symBinAddr: 0x100001590, symSize: 0x10 }
  - { offsetInCU: 0x89E2, offset: 0x89E2, size: 0x8, addend: 0x0, symName: __ZNSt3__112__to_addressB7v160006IKcEEPT_S3_, symObjAddr: 0xE90, symBinAddr: 0x100001630, symSize: 0x10 }
  - { offsetInCU: 0x8A4A, offset: 0x8A4A, size: 0x8, addend: 0x0, symName: __ZNSt3__19use_facetB7v160006INS_5ctypeIcEEEERKT_RKNS_6localeE, symObjAddr: 0x10F0, symBinAddr: 0x100001890, symSize: 0x30 }
  - { offsetInCU: 0x8F19, offset: 0x8F19, size: 0x8, addend: 0x0, symName: __ZNSt3__118__constexpr_strlenB7v160006EPKc, symObjAddr: 0x1180, symBinAddr: 0x100001920, symSize: 0x20 }
  - { offsetInCU: 0x8F45, offset: 0x8F45, size: 0x8, addend: 0x0, symName: __ZNSt3__119__debug_db_insert_cB7v160006INS_6vectorIdNS_9allocatorIdEEEEEEvPT_, symObjAddr: 0x1250, symBinAddr: 0x1000019F0, symSize: 0x10 }
  - { offsetInCU: 0x8F76, offset: 0x8F76, size: 0x8, addend: 0x0, symName: __ZNSt3__118__debug_db_erase_cB7v160006INS_6vectorIdNS_9allocatorIdEEEEEEvPT_, symObjAddr: 0x14E0, symBinAddr: 0x100001C80, symSize: 0x10 }
  - { offsetInCU: 0x8FA7, offset: 0x8FA7, size: 0x8, addend: 0x0, symName: __ZNSt3__112__to_addressB7v160006IdEEPT_S2_, symObjAddr: 0x15F0, symBinAddr: 0x100001D90, symSize: 0x10 }
  - { offsetInCU: 0x8FDC, offset: 0x8FDC, size: 0x8, addend: 0x0, symName: __ZNSt3__119__libcpp_deallocateB7v160006EPvmm, symObjAddr: 0x1700, symBinAddr: 0x100001EA0, symSize: 0x30 }
  - { offsetInCU: 0x9024, offset: 0x9024, size: 0x8, addend: 0x0, symName: __ZNSt3__127__do_deallocate_handle_sizeB7v160006IJEEEvPvmDpT_, symObjAddr: 0x1730, symBinAddr: 0x100001ED0, symSize: 0x20 }
  - { offsetInCU: 0x9062, offset: 0x9062, size: 0x8, addend: 0x0, symName: __ZNSt3__124__libcpp_operator_deleteB7v160006IJPvEEEvDpT_, symObjAddr: 0x1750, symBinAddr: 0x100001EF0, symSize: 0x20 }
  - { offsetInCU: 0x9097, offset: 0x9097, size: 0x8, addend: 0x0, symName: __ZNSt3__13maxB7v160006ImEERKT_S3_S3_, symObjAddr: 0x1D60, symBinAddr: 0x100002500, symSize: 0x30 }
  - { offsetInCU: 0x90DA, offset: 0x90DA, size: 0x8, addend: 0x0, symName: __ZNSt3__13minB7v160006ImEERKT_S3_S3_, symObjAddr: 0x1D90, symBinAddr: 0x100002530, symSize: 0x30 }
  - { offsetInCU: 0x931E, offset: 0x931E, size: 0x8, addend: 0x0, symName: __ZNSt3__13minB7v160006ImNS_6__lessImmEEEERKT_S5_S5_T0_, symObjAddr: 0x1E10, symBinAddr: 0x1000025B0, symSize: 0x50 }
  - { offsetInCU: 0x93B3, offset: 0x93B3, size: 0x8, addend: 0x0, symName: __ZNSt3__120__throw_length_errorB7v160006EPKc, symObjAddr: 0x1EF0, symBinAddr: 0x100002690, symSize: 0x70 }
  - { offsetInCU: 0x93DB, offset: 0x93DB, size: 0x8, addend: 0x0, symName: __ZNSt3__13maxB7v160006ImNS_6__lessImmEEEERKT_S5_S5_T0_, symObjAddr: 0x1FD0, symBinAddr: 0x100002770, symSize: 0x50 }
  - { offsetInCU: 0x9435, offset: 0x9435, size: 0x8, addend: 0x0, symName: __ZNSt3__119__allocate_at_leastB7v160006INS_9allocatorIdEEEENS_19__allocation_resultINS_16allocator_traitsIT_E7pointerEEERS5_m, symObjAddr: 0x2120, symBinAddr: 0x1000028C0, symSize: 0x40 }
  - { offsetInCU: 0x9478, offset: 0x9478, size: 0x8, addend: 0x0, symName: __ZNSt3__117__libcpp_allocateB7v160006Emm, symObjAddr: 0x2290, symBinAddr: 0x100002A30, symSize: 0x20 }
  - { offsetInCU: 0x94B5, offset: 0x94B5, size: 0x8, addend: 0x0, symName: __ZNSt3__121__libcpp_operator_newB7v160006IJmEEEPvDpT_, symObjAddr: 0x22B0, symBinAddr: 0x100002A50, symSize: 0x20 }
  - { offsetInCU: 0x94EE, offset: 0x94EE, size: 0x8, addend: 0x0, symName: __ZNSt3__142__uninitialized_allocator_move_if_noexceptB7v160006INS_9allocatorIdEENS_16reverse_iteratorIPdEES5_dvEET1_RT_T0_S9_S6_, symObjAddr: 0x2330, symBinAddr: 0x100002AD0, symSize: 0x70 }
  - { offsetInCU: 0x956A, offset: 0x956A, size: 0x8, addend: 0x0, symName: __ZNSt3__14swapB7v160006IPdEENS_9enable_ifIXaasr21is_move_constructibleIT_EE5valuesr18is_move_assignableIS3_EE5valueEvE4typeERS3_S6_, symObjAddr: 0x23F0, symBinAddr: 0x100002B90, symSize: 0x40 }
  - { offsetInCU: 0x95BB, offset: 0x95BB, size: 0x8, addend: 0x0, symName: __ZNSt3__125__debug_db_invalidate_allB7v160006INS_6vectorIdNS_9allocatorIdEEEEEEvPT_, symObjAddr: 0x24E0, symBinAddr: 0x100002C80, symSize: 0x10 }
  - { offsetInCU: 0x95EC, offset: 0x95EC, size: 0x8, addend: 0x0, symName: __ZNSt3__14moveB7v160006INS_16reverse_iteratorIPdEES3_EET0_T_S5_S4_, symObjAddr: 0x24F0, symBinAddr: 0x100002C90, symSize: 0x80 }
  - { offsetInCU: 0x9646, offset: 0x9646, size: 0x8, addend: 0x0, symName: __ZNSt3__16__moveB7v160006INS_17_ClassicAlgPolicyENS_16reverse_iteratorIPdEES4_S4_EENS_4pairIT0_T2_EES6_T1_S7_, symObjAddr: 0x2570, symBinAddr: 0x100002D10, symSize: 0x90 }
  - { offsetInCU: 0x96B2, offset: 0x96B2, size: 0x8, addend: 0x0, symName: __ZNSt3__123__dispatch_copy_or_moveB7v160006INS_17_ClassicAlgPolicyENS_11__move_loopIS1_EENS_14__move_trivialENS_16reverse_iteratorIPdEES7_S7_EENS_4pairIT2_T4_EES9_T3_SA_, symObjAddr: 0x2600, symBinAddr: 0x100002DA0, symSize: 0x90 }
  - { offsetInCU: 0x9730, offset: 0x9730, size: 0x8, addend: 0x0, symName: __ZNSt3__121__unwrap_and_dispatchB7v160006INS_10__overloadINS_11__move_loopINS_17_ClassicAlgPolicyEEENS_14__move_trivialEEENS_16reverse_iteratorIPdEES9_S9_Li0EEENS_4pairIT0_T2_EESB_T1_SC_, symObjAddr: 0x2690, symBinAddr: 0x100002E30, symSize: 0x210 }
  - { offsetInCU: 0x97BF, offset: 0x97BF, size: 0x8, addend: 0x0, symName: __ZNSt3__114__unwrap_rangeB7v160006INS_16reverse_iteratorIPdEES3_EENS_4pairIT0_S5_EET_S7_, symObjAddr: 0x28A0, symBinAddr: 0x100003040, symSize: 0x90 }
  - { offsetInCU: 0x993A, offset: 0x993A, size: 0x8, addend: 0x0, symName: __ZNSt3__113__unwrap_iterB7v160006INS_16reverse_iteratorIPdEENS_18__unwrap_iter_implIS3_Lb0EEELi0EEEDTclsrT0_8__unwrapclsr3stdE7declvalIT_EEEES7_, symObjAddr: 0x29D0, symBinAddr: 0x100003170, symSize: 0x40 }
  - { offsetInCU: 0x997E, offset: 0x997E, size: 0x8, addend: 0x0, symName: __ZNSt3__19make_pairB7v160006INS_16reverse_iteratorIPdEES3_EENS_4pairINS_18__unwrap_ref_decayIT_E4typeENS5_IT0_E4typeEEEOS6_OS9_, symObjAddr: 0x2A10, symBinAddr: 0x1000031B0, symSize: 0x30 }
  - { offsetInCU: 0x99CD, offset: 0x99CD, size: 0x8, addend: 0x0, symName: __ZNSt3__114__rewrap_rangeB7v160006INS_16reverse_iteratorIPdEES3_EET_S4_T0_, symObjAddr: 0x2A40, symBinAddr: 0x1000031E0, symSize: 0x60 }
  - { offsetInCU: 0x9A19, offset: 0x9A19, size: 0x8, addend: 0x0, symName: __ZNSt3__113__rewrap_iterB7v160006INS_16reverse_iteratorIPdEES3_NS_18__unwrap_iter_implIS3_Lb0EEEEET_S6_T0_, symObjAddr: 0x2AA0, symBinAddr: 0x100003240, symSize: 0x70 }
  - { offsetInCU: 0x9A6E, offset: 0x9A6E, size: 0x8, addend: 0x0, symName: __ZNSt3__1neB7v160006IPdS1_EEbRKNS_16reverse_iteratorIT_EERKNS2_IT0_EE, symObjAddr: 0x2B10, symBinAddr: 0x1000032B0, symSize: 0x40 }
  - { offsetInCU: 0x9BEA, offset: 0x9BEA, size: 0x8, addend: 0x0, symName: __ZNSt3__119__debug_db_insert_cB7v160006INS_6vectorINS_4pairI5PointdEENS_9allocatorIS4_EEEEEEvPT_, symObjAddr: 0x2F00, symBinAddr: 0x1000036A0, symSize: 0x10 }
  - { offsetInCU: 0x9C1B, offset: 0x9C1B, size: 0x8, addend: 0x0, symName: __ZNSt3__118__debug_db_erase_cB7v160006INS_6vectorINS_4pairI5PointdEENS_9allocatorIS4_EEEEEEvPT_, symObjAddr: 0x3190, symBinAddr: 0x100003930, symSize: 0x10 }
  - { offsetInCU: 0x9C4C, offset: 0x9C4C, size: 0x8, addend: 0x0, symName: __ZNSt3__112__to_addressB7v160006INS_4pairI5PointdEEEEPT_S5_, symObjAddr: 0x32A0, symBinAddr: 0x100003A40, symSize: 0x10 }
  - { offsetInCU: 0x9C81, offset: 0x9C81, size: 0x8, addend: 0x0, symName: __ZNSt3__119__allocate_at_leastB7v160006INS_9allocatorINS_4pairI5PointdEEEEEENS_19__allocation_resultINS_16allocator_traitsIT_E7pointerEEERS8_m, symObjAddr: 0x3B30, symBinAddr: 0x1000042D0, symSize: 0x40 }
  - { offsetInCU: 0x9CC4, offset: 0x9CC4, size: 0x8, addend: 0x0, symName: __ZNSt3__142__uninitialized_allocator_move_if_noexceptB7v160006INS_9allocatorINS_4pairI5PointdEEEENS_16reverse_iteratorIPS4_EES8_S8_EET2_RT_T0_T1_S9_, symObjAddr: 0x3CC0, symBinAddr: 0x100004460, symSize: 0x180 }
  - { offsetInCU: 0x9D63, offset: 0x9D63, size: 0x8, addend: 0x0, symName: __ZNSt3__14swapB7v160006IPNS_4pairI5PointdEEEENS_9enable_ifIXaasr21is_move_constructibleIT_EE5valuesr18is_move_assignableIS6_EE5valueEvE4typeERS6_S9_, symObjAddr: 0x3E90, symBinAddr: 0x100004630, symSize: 0x40 }
  - { offsetInCU: 0x9DB4, offset: 0x9DB4, size: 0x8, addend: 0x0, symName: __ZNSt3__125__debug_db_invalidate_allB7v160006INS_6vectorINS_4pairI5PointdEENS_9allocatorIS4_EEEEEEvPT_, symObjAddr: 0x3F80, symBinAddr: 0x100004720, symSize: 0x10 }
  - { offsetInCU: 0x9DE5, offset: 0x9DE5, size: 0x8, addend: 0x0, symName: __ZNSt3__122__make_exception_guardB7v160006INS_29_AllocatorDestroyRangeReverseINS_9allocatorINS_4pairI5PointdEEEENS_16reverse_iteratorIPS5_EEEEEENS_28__exception_guard_exceptionsIT_EESC_, symObjAddr: 0x3F90, symBinAddr: 0x100004730, symSize: 0x60 }
  - { offsetInCU: 0x9E1A, offset: 0x9E1A, size: 0x8, addend: 0x0, symName: __ZNSt3__1neB7v160006IPNS_4pairI5PointdEES4_EEbRKNS_16reverse_iteratorIT_EERKNS5_IT0_EE, symObjAddr: 0x4030, symBinAddr: 0x1000047D0, symSize: 0x40 }
  - { offsetInCU: 0x9E66, offset: 0x9E66, size: 0x8, addend: 0x0, symName: __ZNSt3__112__to_addressB7v160006INS_16reverse_iteratorIPNS_4pairI5PointdEEEEvEENS_5decayIDTclsr19__to_address_helperIT_EE6__callclsr3stdE7declvalIRKS8_EEEEE4typeESA_, symObjAddr: 0x4070, symBinAddr: 0x100004810, symSize: 0x20 }
  - { offsetInCU: 0x9EC5, offset: 0x9EC5, size: 0x8, addend: 0x0, symName: __ZNSt3__119__allocator_destroyB7v160006INS_9allocatorINS_4pairI5PointdEEEENS_16reverse_iteratorINS6_IPS4_EEEES9_EEvRT_T0_T1_, symObjAddr: 0x4360, symBinAddr: 0x100004B00, symSize: 0x70 }
  - { offsetInCU: 0x9F28, offset: 0x9F28, size: 0x8, addend: 0x0, symName: __ZNSt3__1neB7v160006INS_16reverse_iteratorIPNS_4pairI5PointdEEEES6_EEbRKNS1_IT_EERKNS1_IT0_EE, symObjAddr: 0x4400, symBinAddr: 0x100004BA0, symSize: 0x50 }
  - { offsetInCU: 0x9F74, offset: 0x9F74, size: 0x8, addend: 0x0, symName: __ZNSt3__112__to_addressB7v160006INS_16reverse_iteratorINS1_IPNS_4pairI5PointdEEEEEEvEENS_5decayIDTclsr19__to_address_helperIT_EE6__callclsr3stdE7declvalIRKS9_EEEEE4typeESB_, symObjAddr: 0x4450, symBinAddr: 0x100004BF0, symSize: 0x20 }
  - { offsetInCU: 0x9FD3, offset: 0x9FD3, size: 0x8, addend: 0x0, symName: '__ZNSt3__111__sort_implB7v160006INS_17_ClassicAlgPolicyENS_11__wrap_iterIPNS_4pairI5PointdEEEEZ14closestKPointsPS4_iRS4_iE3$_0EEvT0_SB_RT1_', symObjAddr: 0x4820, symBinAddr: 0x100004FC0, symSize: 0x80 }
  - { offsetInCU: 0xA07A, offset: 0xA07A, size: 0x8, addend: 0x0, symName: __ZNSt3__123__debug_randomize_rangeB7v160006INS_17_ClassicAlgPolicyENS_11__wrap_iterIPNS_4pairI5PointdEEEES7_EEvT0_T1_, symObjAddr: 0x48A0, symBinAddr: 0x100005040, symSize: 0x10 }
  - { offsetInCU: 0xA0CB, offset: 0xA0CB, size: 0x8, addend: 0x0, symName: '__ZNSt3__16__sortIRZ14closestKPointsP5PointiRS1_iE3$_0PNS_4pairIS1_dEEEEvT0_S9_T_', symObjAddr: 0x48B0, symBinAddr: 0x100005050, symSize: 0x60 }
  - { offsetInCU: 0xA15B, offset: 0xA15B, size: 0x8, addend: 0x0, symName: __ZNSt3__113__unwrap_iterB7v160006INS_11__wrap_iterIPNS_4pairI5PointdEEEENS_18__unwrap_iter_implIS6_Lb1EEELi0EEEDTclsrT0_8__unwrapclsr3stdE7declvalIT_EEEESA_, symObjAddr: 0x4910, symBinAddr: 0x1000050B0, symSize: 0x30 }
  - { offsetInCU: 0xA19F, offset: 0xA19F, size: 0x8, addend: 0x0, symName: __ZNSt3__17__log2iB7v160006IlEET_S1_, symObjAddr: 0x4940, symBinAddr: 0x1000050E0, symSize: 0x50 }
  - { offsetInCU: 0xA209, offset: 0xA209, size: 0x8, addend: 0x0, symName: __ZNSt3__112__libcpp_clzB7v160006Em, symObjAddr: 0x5030, symBinAddr: 0x1000057D0, symSize: 0x20 }
  - { offsetInCU: 0xA235, offset: 0xA235, size: 0x8, addend: 0x0, symName: '__ZNSt3__124__sort3_maybe_branchlessB7v160006INS_17_ClassicAlgPolicyERZ14closestKPointsP5PointiRS2_iE3$_0PNS_4pairIS2_dEEEENS_9enable_ifIXntsr21__use_branchless_sortIT0_T1_EE5valueEvE4typeESC_SC_SC_SB_', symObjAddr: 0x50B0, symBinAddr: 0x100005850, symSize: 0x40 }
  - { offsetInCU: 0xA2A6, offset: 0xA2A6, size: 0x8, addend: 0x0, symName: '__ZNSt3__124__sort4_maybe_branchlessB7v160006INS_17_ClassicAlgPolicyERZ14closestKPointsP5PointiRS2_iE3$_0PNS_4pairIS2_dEEEENS_9enable_ifIXntsr21__use_branchless_sortIT0_T1_EE5valueEvE4typeESC_SC_SC_SC_SB_', symObjAddr: 0x50F0, symBinAddr: 0x100005890, symSize: 0x40 }
  - { offsetInCU: 0xA32B, offset: 0xA32B, size: 0x8, addend: 0x0, symName: '__ZNSt3__124__sort5_maybe_branchlessB7v160006INS_17_ClassicAlgPolicyERZ14closestKPointsP5PointiRS2_iE3$_0PNS_4pairIS2_dEEEENS_9enable_ifIXntsr21__use_branchless_sortIT0_T1_EE5valueEvE4typeESC_SC_SC_SC_SC_SB_', symObjAddr: 0x5130, symBinAddr: 0x1000058D0, symSize: 0x50 }
  - { offsetInCU: 0xA3BF, offset: 0xA3BF, size: 0x8, addend: 0x0, symName: '__ZNSt3__114__partial_sortB7v160006INS_17_ClassicAlgPolicyERZ14closestKPointsP5PointiRS2_iE3$_0PNS_4pairIS2_dEES9_EET1_SA_SA_T2_RT0_', symObjAddr: 0x52A0, symBinAddr: 0x100005A40, symSize: 0x90 }
  - { offsetInCU: 0xA447, offset: 0xA447, size: 0x8, addend: 0x0, symName: '__ZNSt3__119__sort5_wrap_policyB7v160006INS_17_ClassicAlgPolicyERZ14closestKPointsP5PointiRS2_iE3$_0PNS_4pairIS2_dEEEEjT1_SA_SA_SA_SA_T0_', symObjAddr: 0x5330, symBinAddr: 0x100005AD0, symSize: 0x50 }
  - { offsetInCU: 0xA4ED, offset: 0xA4ED, size: 0x8, addend: 0x0, symName: '__ZNSt3__17__sort3B7v160006INS_17_ClassicAlgPolicyERZ14closestKPointsP5PointiRS2_iE3$_0PNS_4pairIS2_dEEEEjT1_SA_SA_T0_', symObjAddr: 0x5380, symBinAddr: 0x100005B20, symSize: 0x140 }
  - { offsetInCU: 0xA56C, offset: 0xA56C, size: 0x8, addend: 0x0, symName: __ZNSt3__19iter_swapB7v160006IPNS_4pairI5PointdEES4_EEvT_T0_, symObjAddr: 0x5760, symBinAddr: 0x100005F00, symSize: 0x30 }
  - { offsetInCU: 0xA5B4, offset: 0xA5B4, size: 0x8, addend: 0x0, symName: __ZNSt3__14swapB7v160006I5PointdEENS_9enable_ifIXaasr14__is_swappableIT_EE5valuesr14__is_swappableIT0_EE5valueEvE4typeERNS_4pairIS3_S4_EES9_, symObjAddr: 0x5790, symBinAddr: 0x100005F30, symSize: 0x30 }
  - { offsetInCU: 0xA603, offset: 0xA603, size: 0x8, addend: 0x0, symName: __ZNSt3__14swapB7v160006I5PointEENS_9enable_ifIXaasr21is_move_constructibleIT_EE5valuesr18is_move_assignableIS3_EE5valueEvE4typeERS3_S6_, symObjAddr: 0x5800, symBinAddr: 0x100005FA0, symSize: 0x40 }
  - { offsetInCU: 0xA654, offset: 0xA654, size: 0x8, addend: 0x0, symName: __ZNSt3__14swapB7v160006IdEENS_9enable_ifIXaasr21is_move_constructibleIT_EE5valuesr18is_move_assignableIS2_EE5valueEvE4typeERS2_S5_, symObjAddr: 0x5840, symBinAddr: 0x100005FE0, symSize: 0x40 }
  - { offsetInCU: 0xA6A5, offset: 0xA6A5, size: 0x8, addend: 0x0, symName: '__ZNSt3__17__sort4B7v160006INS_17_ClassicAlgPolicyERZ14closestKPointsP5PointiRS2_iE3$_0PNS_4pairIS2_dEEEEjT1_SA_SA_SA_T0_', symObjAddr: 0x5880, symBinAddr: 0x100006020, symSize: 0xF0 }
  - { offsetInCU: 0xA756, offset: 0xA756, size: 0x8, addend: 0x0, symName: __ZNSt3__123__debug_randomize_rangeB7v160006INS_17_ClassicAlgPolicyEPNS_4pairI5PointdEES5_EEvT0_T1_, symObjAddr: 0x59F0, symBinAddr: 0x100006190, symSize: 0x10 }
  - { offsetInCU: 0xA7A7, offset: 0xA7A7, size: 0x8, addend: 0x0, symName: '__ZNSt3__119__partial_sort_implB7v160006INS_17_ClassicAlgPolicyERZ14closestKPointsP5PointiRS2_iE3$_0PNS_4pairIS2_dEES9_EET1_SA_SA_T2_OT0_', symObjAddr: 0x5A00, symBinAddr: 0x1000061A0, symSize: 0xF0 }
  - { offsetInCU: 0xA83D, offset: 0xA83D, size: 0x8, addend: 0x0, symName: '__ZNSt3__111__make_heapB7v160006INS_17_ClassicAlgPolicyERZ14closestKPointsP5PointiRS2_iE3$_0PNS_4pairIS2_dEEEEvT1_SA_OT0_', symObjAddr: 0x5AF0, symBinAddr: 0x100006290, symSize: 0xA0 }
  - { offsetInCU: 0xA8DF, offset: 0xA8DF, size: 0x8, addend: 0x0, symName: '__ZNSt3__111__sort_heapB7v160006INS_17_ClassicAlgPolicyERZ14closestKPointsP5PointiRS2_iE3$_0PNS_4pairIS2_dEEEEvT1_SA_OT0_', symObjAddr: 0x5D80, symBinAddr: 0x100006520, symSize: 0x80 }
  - { offsetInCU: 0xA973, offset: 0xA973, size: 0x8, addend: 0x0, symName: '__ZNSt3__110__pop_heapB7v160006INS_17_ClassicAlgPolicyEZ14closestKPointsP5PointiRS2_iE3$_0PNS_4pairIS2_dEEEEvT1_S9_RT0_NS_15iterator_traitsIS9_E15difference_typeE', symObjAddr: 0x5E00, symBinAddr: 0x1000065A0, symSize: 0xE0 }
  - { offsetInCU: 0xAA23, offset: 0xAA23, size: 0x8, addend: 0x0, symName: '__ZNSt3__19__sift_upB7v160006INS_17_ClassicAlgPolicyERZ14closestKPointsP5PointiRS2_iE3$_0PNS_4pairIS2_dEEEEvT1_SA_OT0_NS_15iterator_traitsISA_E15difference_typeE', symObjAddr: 0x5FE0, symBinAddr: 0x100006780, symSize: 0x120 }
  - { offsetInCU: 0xAAD3, offset: 0xAAD3, size: 0x8, addend: 0x0, symName: '__ZNSt3__17__sort5IRZ14closestKPointsP5PointiRS1_iE3$_0PNS_4pairIS1_dEEEEjT0_S9_S9_S9_S9_T_', symObjAddr: 0x6100, symBinAddr: 0x1000068A0, symSize: 0x140 }
  - { offsetInCU: 0xABD1, offset: 0xABD1, size: 0x8, addend: 0x0, symName: __ZNSt3__112__to_addressB7v160006INS_11__wrap_iterIPNS_4pairI5PointdEEEEvEENS_5decayIDTclsr19__to_address_helperIT_EE6__callclsr3stdE7declvalIRKS8_EEEEE4typeESA_, symObjAddr: 0x6260, symBinAddr: 0x100006A00, symSize: 0x20 }
  - { offsetInCU: 0xAFDF, offset: 0xAFDF, size: 0x8, addend: 0x0, symName: __ZSt28__throw_bad_array_new_lengthB7v160006v, symObjAddr: 0x2250, symBinAddr: 0x1000029F0, symSize: 0x40 }
  - { offsetInCU: 0xB2B4, offset: 0xB2B4, size: 0x8, addend: 0x0, symName: __Z3powB7v160006IiiENSt3__19enable_ifIXaasr3std13is_arithmeticIT_EE5valuesr3std13is_arithmeticIT0_EE5valueENS0_9__promoteIS2_S3_vEEE4type4typeES2_S3_, symObjAddr: 0x640, symBinAddr: 0x100000DE0, symSize: 0x30 }
  - { offsetInCU: 0xB5F8, offset: 0xB5F8, size: 0x8, addend: 0x0, symName: __ZNSt3__16vectorIdNS_9allocatorIdEEE26__swap_out_circular_bufferERNS_14__split_bufferIdRS2_EE, symObjAddr: 0x1B90, symBinAddr: 0x100002330, symSize: 0x130 }
  - { offsetInCU: 0xB852, offset: 0xB852, size: 0x8, addend: 0x0, symName: __ZNSt3__16vectorINS_4pairI5PointdEENS_9allocatorIS3_EEE26__swap_out_circular_bufferERNS_14__split_bufferIS3_RS5_EE, symObjAddr: 0x37D0, symBinAddr: 0x100003F70, symSize: 0x130 }
  - { offsetInCU: 0xDAFA, offset: 0xDAFA, size: 0x8, addend: 0x0, symName: __Z14closestKPointsP5PointiRS_i, symObjAddr: 0x0, symBinAddr: 0x1000007A0, symSize: 0x230 }
  - { offsetInCU: 0xDBE4, offset: 0xDBE4, size: 0x8, addend: 0x0, symName: __ZNSt3__16vectorIdNS_9allocatorIdEEEC1B7v160006Ev, symObjAddr: 0x230, symBinAddr: 0x1000009D0, symSize: 0x20 }
  - { offsetInCU: 0xDC0E, offset: 0xDC0E, size: 0x8, addend: 0x0, symName: __ZNSt3__16vectorIdNS_9allocatorIdEEE9push_backB7v160006EOd, symObjAddr: 0x250, symBinAddr: 0x1000009F0, symSize: 0x60 }
  - { offsetInCU: 0xDC45, offset: 0xDC45, size: 0x8, addend: 0x0, symName: __ZN5Point18Euclidean_distanceERS_, symObjAddr: 0x2B0, symBinAddr: 0x100000A50, symSize: 0x60 }
  - { offsetInCU: 0xDC79, offset: 0xDC79, size: 0x8, addend: 0x0, symName: __ZNSt3__16vectorINS_4pairI5PointdEENS_9allocatorIS3_EEEC1B7v160006Ev, symObjAddr: 0x310, symBinAddr: 0x100000AB0, symSize: 0x20 }
  - { offsetInCU: 0xDCA3, offset: 0xDCA3, size: 0x8, addend: 0x0, symName: __ZNSt3__16vectorINS_4pairI5PointdEENS_9allocatorIS3_EEE9push_backB7v160006EOS3_, symObjAddr: 0x330, symBinAddr: 0x100000AD0, symSize: 0x60 }
  - { offsetInCU: 0xDCDA, offset: 0xDCDA, size: 0x8, addend: 0x0, symName: __ZNSt3__16vectorIdNS_9allocatorIdEEEixB7v160006Em, symObjAddr: 0x3C0, symBinAddr: 0x100000B60, symSize: 0x20 }
  - { offsetInCU: 0xDD11, offset: 0xDD11, size: 0x8, addend: 0x0, symName: __ZNSt3__16vectorINS_4pairI5PointdEENS_9allocatorIS3_EEE5beginB7v160006Ev, symObjAddr: 0x420, symBinAddr: 0x100000BC0, symSize: 0x30 }
  - { offsetInCU: 0xDD39, offset: 0xDD39, size: 0x8, addend: 0x0, symName: __ZNSt3__16vectorINS_4pairI5PointdEENS_9allocatorIS3_EEE3endB7v160006Ev, symObjAddr: 0x450, symBinAddr: 0x100000BF0, symSize: 0x30 }
  - { offsetInCU: 0xDD61, offset: 0xDD61, size: 0x8, addend: 0x0, symName: __ZNSt3__16vectorINS_4pairI5PointdEENS_9allocatorIS3_EEEixB7v160006Em, symObjAddr: 0x480, symBinAddr: 0x100000C20, symSize: 0x20 }
  - { offsetInCU: 0xDD98, offset: 0xDD98, size: 0x8, addend: 0x0, symName: __ZN5Point7displayEv, symObjAddr: 0x4A0, symBinAddr: 0x100000C40, symSize: 0x70 }
  - { offsetInCU: 0xDDBE, offset: 0xDDBE, size: 0x8, addend: 0x0, symName: __ZNSt3__16vectorINS_4pairI5PointdEENS_9allocatorIS3_EEED1B7v160006Ev, symObjAddr: 0x510, symBinAddr: 0x100000CB0, symSize: 0x20 }
  - { offsetInCU: 0xDDE8, offset: 0xDDE8, size: 0x8, addend: 0x0, symName: __ZNSt3__16vectorIdNS_9allocatorIdEEED1B7v160006Ev, symObjAddr: 0x530, symBinAddr: 0x100000CD0, symSize: 0x20 }
  - { offsetInCU: 0xDE12, offset: 0xDE12, size: 0x8, addend: 0x0, symName: _main, symObjAddr: 0x550, symBinAddr: 0x100000CF0, symSize: 0xC0 }
  - { offsetInCU: 0xDE65, offset: 0xDE65, size: 0x8, addend: 0x0, symName: __ZN5PointC1Eii, symObjAddr: 0x610, symBinAddr: 0x100000DB0, symSize: 0x30 }
  - { offsetInCU: 0xDEAB, offset: 0xDEAB, size: 0x8, addend: 0x0, symName: __ZNSt3__14pairI5PointdEC1B7v160006IRS1_RdLPv0EEEOT_OT0_, symObjAddr: 0x670, symBinAddr: 0x100000E10, symSize: 0x30 }
  - { offsetInCU: 0xDF09, offset: 0xDF09, size: 0x8, addend: 0x0, symName: __ZNSt3__14pairI5PointdEC2B7v160006IRS1_RdLPv0EEEOT_OT0_, symObjAddr: 0x6A0, symBinAddr: 0x100000E40, symSize: 0x30 }
  - { offsetInCU: 0xDF67, offset: 0xDF67, size: 0x8, addend: 0x0, symName: __ZNSt3__111char_traitsIcE6lengthEPKc, symObjAddr: 0x900, symBinAddr: 0x1000010A0, symSize: 0x30 }
  - { offsetInCU: 0xDFA8, offset: 0xDFA8, size: 0x8, addend: 0x0, symName: __ZNKSt3__113basic_ostreamIcNS_11char_traitsIcEEE6sentrycvbB7v160006Ev, symObjAddr: 0x930, symBinAddr: 0x1000010D0, symSize: 0x20 }
  - { offsetInCU: 0xDFCE, offset: 0xDFCE, size: 0x8, addend: 0x0, symName: __ZNSt3__119ostreambuf_iteratorIcNS_11char_traitsIcEEEC1B7v160006ERNS_13basic_ostreamIcS2_EE, symObjAddr: 0xB70, symBinAddr: 0x100001310, symSize: 0x30 }
  - { offsetInCU: 0xE006, offset: 0xE006, size: 0x8, addend: 0x0, symName: __ZNKSt3__18ios_base5flagsB7v160006Ev, symObjAddr: 0xBA0, symBinAddr: 0x100001340, symSize: 0x20 }
  - { offsetInCU: 0xE02E, offset: 0xE02E, size: 0x8, addend: 0x0, symName: __ZNKSt3__19basic_iosIcNS_11char_traitsIcEEE4fillB7v160006Ev, symObjAddr: 0xBC0, symBinAddr: 0x100001360, symSize: 0x70 }
  - { offsetInCU: 0xE056, offset: 0xE056, size: 0x8, addend: 0x0, symName: __ZNKSt3__119ostreambuf_iteratorIcNS_11char_traitsIcEEE6failedB7v160006Ev, symObjAddr: 0xC30, symBinAddr: 0x1000013D0, symSize: 0x20 }
  - { offsetInCU: 0xE07C, offset: 0xE07C, size: 0x8, addend: 0x0, symName: __ZNSt3__19basic_iosIcNS_11char_traitsIcEEE8setstateB7v160006Ej, symObjAddr: 0xC50, symBinAddr: 0x1000013F0, symSize: 0x30 }
  - { offsetInCU: 0xE0B1, offset: 0xE0B1, size: 0x8, addend: 0x0, symName: __ZNKSt3__18ios_base5widthB7v160006Ev, symObjAddr: 0xC90, symBinAddr: 0x100001430, symSize: 0x20 }
  - { offsetInCU: 0xE0D9, offset: 0xE0D9, size: 0x8, addend: 0x0, symName: __ZNSt3__115basic_streambufIcNS_11char_traitsIcEEE5sputnB7v160006EPKcl, symObjAddr: 0xCB0, symBinAddr: 0x100001450, symSize: 0x30 }
  - { offsetInCU: 0xE11B, offset: 0xE11B, size: 0x8, addend: 0x0, symName: __ZNSt3__112basic_stringIcNS_11char_traitsIcEENS_9allocatorIcEEEC1B7v160006Emc, symObjAddr: 0xCE0, symBinAddr: 0x100001480, symSize: 0x30 }
  - { offsetInCU: 0xE163, offset: 0xE163, size: 0x8, addend: 0x0, symName: __ZNKSt3__112basic_stringIcNS_11char_traitsIcEENS_9allocatorIcEEE4dataB7v160006Ev, symObjAddr: 0xD10, symBinAddr: 0x1000014B0, symSize: 0x30 }
  - { offsetInCU: 0xE189, offset: 0xE189, size: 0x8, addend: 0x0, symName: __ZNSt3__18ios_base5widthB7v160006El, symObjAddr: 0xD40, symBinAddr: 0x1000014E0, symSize: 0x30 }
  - { offsetInCU: 0xE1CF, offset: 0xE1CF, size: 0x8, addend: 0x0, symName: __ZNSt3__112basic_stringIcNS_11char_traitsIcEENS_9allocatorIcEEEC2B7v160006Emc, symObjAddr: 0xD70, symBinAddr: 0x100001510, symSize: 0x50 }
  - { offsetInCU: 0xE21C, offset: 0xE21C, size: 0x8, addend: 0x0, symName: __ZNSt3__117__compressed_pairINS_12basic_stringIcNS_11char_traitsIcEENS_9allocatorIcEEE5__repES5_EC1B7v160006INS_18__default_init_tagESA_EEOT_OT0_, symObjAddr: 0xDC0, symBinAddr: 0x100001560, symSize: 0x30 }
  - { offsetInCU: 0xE274, offset: 0xE274, size: 0x8, addend: 0x0, symName: __ZNSt3__117__compressed_pairINS_12basic_stringIcNS_11char_traitsIcEENS_9allocatorIcEEE5__repES5_EC2B7v160006INS_18__default_init_tagESA_EEOT_OT0_, symObjAddr: 0xE00, symBinAddr: 0x1000015A0, symSize: 0x30 }
  - { offsetInCU: 0xE2CC, offset: 0xE2CC, size: 0x8, addend: 0x0, symName: __ZNSt3__122__compressed_pair_elemINS_12basic_stringIcNS_11char_traitsIcEENS_9allocatorIcEEE5__repELi0ELb0EEC2B7v160006ENS_18__default_init_tagE, symObjAddr: 0xE30, symBinAddr: 0x1000015D0, symSize: 0x10 }
  - { offsetInCU: 0xE301, offset: 0xE301, size: 0x8, addend: 0x0, symName: __ZNSt3__122__compressed_pair_elemINS_9allocatorIcEELi1ELb1EEC2B7v160006ENS_18__default_init_tagE, symObjAddr: 0xE40, symBinAddr: 0x1000015E0, symSize: 0x20 }
  - { offsetInCU: 0xE336, offset: 0xE336, size: 0x8, addend: 0x0, symName: __ZNSt3__19allocatorIcEC2B7v160006Ev, symObjAddr: 0xE60, symBinAddr: 0x100001600, symSize: 0x20 }
  - { offsetInCU: 0xE360, offset: 0xE360, size: 0x8, addend: 0x0, symName: __ZNSt3__116__non_trivial_ifILb1ENS_9allocatorIcEEEC2B7v160006Ev, symObjAddr: 0xE80, symBinAddr: 0x100001620, symSize: 0x10 }
  - { offsetInCU: 0xE38A, offset: 0xE38A, size: 0x8, addend: 0x0, symName: __ZNKSt3__112basic_stringIcNS_11char_traitsIcEENS_9allocatorIcEEE13__get_pointerB7v160006Ev, symObjAddr: 0xEA0, symBinAddr: 0x100001640, symSize: 0x50 }
  - { offsetInCU: 0xE3B0, offset: 0xE3B0, size: 0x8, addend: 0x0, symName: __ZNKSt3__112basic_stringIcNS_11char_traitsIcEENS_9allocatorIcEEE9__is_longB7v160006Ev, symObjAddr: 0xEF0, symBinAddr: 0x100001690, symSize: 0x30 }
  - { offsetInCU: 0xE3D6, offset: 0xE3D6, size: 0x8, addend: 0x0, symName: __ZNKSt3__112basic_stringIcNS_11char_traitsIcEENS_9allocatorIcEEE18__get_long_pointerB7v160006Ev, symObjAddr: 0xF20, symBinAddr: 0x1000016C0, symSize: 0x20 }
  - { offsetInCU: 0xE3FC, offset: 0xE3FC, size: 0x8, addend: 0x0, symName: __ZNKSt3__112basic_stringIcNS_11char_traitsIcEENS_9allocatorIcEEE19__get_short_pointerB7v160006Ev, symObjAddr: 0xF40, symBinAddr: 0x1000016E0, symSize: 0x30 }
  - { offsetInCU: 0xE422, offset: 0xE422, size: 0x8, addend: 0x0, symName: __ZNKSt3__117__compressed_pairINS_12basic_stringIcNS_11char_traitsIcEENS_9allocatorIcEEE5__repES5_E5firstB7v160006Ev, symObjAddr: 0xF70, symBinAddr: 0x100001710, symSize: 0x20 }
  - { offsetInCU: 0xE448, offset: 0xE448, size: 0x8, addend: 0x0, symName: __ZNKSt3__122__compressed_pair_elemINS_12basic_stringIcNS_11char_traitsIcEENS_9allocatorIcEEE5__repELi0ELb0EE5__getB7v160006Ev, symObjAddr: 0xF90, symBinAddr: 0x100001730, symSize: 0x10 }
  - { offsetInCU: 0xE46E, offset: 0xE46E, size: 0x8, addend: 0x0, symName: __ZNSt3__114pointer_traitsIPKcE10pointer_toB7v160006ERS1_, symObjAddr: 0xFA0, symBinAddr: 0x100001740, symSize: 0x10 }
  - { offsetInCU: 0xE491, offset: 0xE491, size: 0x8, addend: 0x0, symName: __ZNSt3__119ostreambuf_iteratorIcNS_11char_traitsIcEEEC2B7v160006ERNS_13basic_ostreamIcS2_EE, symObjAddr: 0xFB0, symBinAddr: 0x100001750, symSize: 0x50 }
  - { offsetInCU: 0xE4C9, offset: 0xE4C9, size: 0x8, addend: 0x0, symName: __ZNKSt3__19basic_iosIcNS_11char_traitsIcEEE5rdbufB7v160006Ev, symObjAddr: 0x1000, symBinAddr: 0x1000017A0, symSize: 0x20 }
  - { offsetInCU: 0xE4F1, offset: 0xE4F1, size: 0x8, addend: 0x0, symName: __ZNKSt3__18ios_base5rdbufB7v160006Ev, symObjAddr: 0x1020, symBinAddr: 0x1000017C0, symSize: 0x20 }
  - { offsetInCU: 0xE517, offset: 0xE517, size: 0x8, addend: 0x0, symName: __ZNSt3__111char_traitsIcE11eq_int_typeEii, symObjAddr: 0x1040, symBinAddr: 0x1000017E0, symSize: 0x20 }
  - { offsetInCU: 0xE548, offset: 0xE548, size: 0x8, addend: 0x0, symName: __ZNSt3__111char_traitsIcE3eofEv, symObjAddr: 0x1060, symBinAddr: 0x100001800, symSize: 0x10 }
  - { offsetInCU: 0xE55C, offset: 0xE55C, size: 0x8, addend: 0x0, symName: __ZNKSt3__19basic_iosIcNS_11char_traitsIcEEE5widenB7v160006Ec, symObjAddr: 0x1070, symBinAddr: 0x100001810, symSize: 0x80 }
  - { offsetInCU: 0xE5CA, offset: 0xE5CA, size: 0x8, addend: 0x0, symName: __ZNKSt3__15ctypeIcE5widenB7v160006Ec, symObjAddr: 0x1120, symBinAddr: 0x1000018C0, symSize: 0x30 }
  - { offsetInCU: 0xE5FF, offset: 0xE5FF, size: 0x8, addend: 0x0, symName: __ZNSt3__18ios_base8setstateB7v160006Ej, symObjAddr: 0x1150, symBinAddr: 0x1000018F0, symSize: 0x30 }
  - { offsetInCU: 0xE636, offset: 0xE636, size: 0x8, addend: 0x0, symName: __ZN5PointC2Eii, symObjAddr: 0x11A0, symBinAddr: 0x100001940, symSize: 0x20 }
  - { offsetInCU: 0xE67C, offset: 0xE67C, size: 0x8, addend: 0x0, symName: __ZNSt3__16vectorIdNS_9allocatorIdEEEC2B7v160006Ev, symObjAddr: 0x11C0, symBinAddr: 0x100001960, symSize: 0x60 }
  - { offsetInCU: 0xE6AB, offset: 0xE6AB, size: 0x8, addend: 0x0, symName: __ZNSt3__117__compressed_pairIPdNS_9allocatorIdEEEC1B7v160006IDnNS_18__default_init_tagEEEOT_OT0_, symObjAddr: 0x1220, symBinAddr: 0x1000019C0, symSize: 0x30 }
  - { offsetInCU: 0xE703, offset: 0xE703, size: 0x8, addend: 0x0, symName: __ZNSt3__117__compressed_pairIPdNS_9allocatorIdEEEC2B7v160006IDnNS_18__default_init_tagEEEOT_OT0_, symObjAddr: 0x1260, symBinAddr: 0x100001A00, symSize: 0x40 }
  - { offsetInCU: 0xE75B, offset: 0xE75B, size: 0x8, addend: 0x0, symName: __ZNSt3__122__compressed_pair_elemIPdLi0ELb0EEC2B7v160006IDnvEEOT_, symObjAddr: 0x12A0, symBinAddr: 0x100001A40, symSize: 0x20 }
  - { offsetInCU: 0xE79D, offset: 0xE79D, size: 0x8, addend: 0x0, symName: __ZNSt3__122__compressed_pair_elemINS_9allocatorIdEELi1ELb1EEC2B7v160006ENS_18__default_init_tagE, symObjAddr: 0x12C0, symBinAddr: 0x100001A60, symSize: 0x20 }
  - { offsetInCU: 0xE7D2, offset: 0xE7D2, size: 0x8, addend: 0x0, symName: __ZNSt3__19allocatorIdEC2B7v160006Ev, symObjAddr: 0x12E0, symBinAddr: 0x100001A80, symSize: 0x20 }
  - { offsetInCU: 0xE7FC, offset: 0xE7FC, size: 0x8, addend: 0x0, symName: __ZNSt3__116__non_trivial_ifILb1ENS_9allocatorIdEEEC2B7v160006Ev, symObjAddr: 0x1300, symBinAddr: 0x100001AA0, symSize: 0x10 }
  - { offsetInCU: 0xE826, offset: 0xE826, size: 0x8, addend: 0x0, symName: __ZNSt3__16vectorIdNS_9allocatorIdEEED2B7v160006Ev, symObjAddr: 0x1310, symBinAddr: 0x100001AB0, symSize: 0x40 }
  - { offsetInCU: 0xE850, offset: 0xE850, size: 0x8, addend: 0x0, symName: __ZNSt3__16vectorIdNS_9allocatorIdEEE16__destroy_vectorC1ERS3_, symObjAddr: 0x1350, symBinAddr: 0x100001AF0, symSize: 0x30 }
  - { offsetInCU: 0xE889, offset: 0xE889, size: 0x8, addend: 0x0, symName: __ZNSt3__16vectorIdNS_9allocatorIdEEE16__destroy_vectorclB7v160006Ev, symObjAddr: 0x1380, symBinAddr: 0x100001B20, symSize: 0x90 }
  - { offsetInCU: 0xE8AF, offset: 0xE8AF, size: 0x8, addend: 0x0, symName: __ZNSt3__16vectorIdNS_9allocatorIdEEE16__destroy_vectorC2ERS3_, symObjAddr: 0x1410, symBinAddr: 0x100001BB0, symSize: 0x20 }
  - { offsetInCU: 0xE8E8, offset: 0xE8E8, size: 0x8, addend: 0x0, symName: __ZNKSt3__16vectorIdNS_9allocatorIdEEE17__annotate_deleteB7v160006Ev, symObjAddr: 0x1430, symBinAddr: 0x100001BD0, symSize: 0xB0 }
  - { offsetInCU: 0xE90E, offset: 0xE90E, size: 0x8, addend: 0x0, symName: __ZNSt3__16vectorIdNS_9allocatorIdEEE7__clearB7v160006Ev, symObjAddr: 0x14F0, symBinAddr: 0x100001C90, symSize: 0x20 }
  - { offsetInCU: 0xE934, offset: 0xE934, size: 0x8, addend: 0x0, symName: __ZNSt3__116allocator_traitsINS_9allocatorIdEEE10deallocateB7v160006ERS2_Pdm, symObjAddr: 0x1510, symBinAddr: 0x100001CB0, symSize: 0x30 }
  - { offsetInCU: 0xE976, offset: 0xE976, size: 0x8, addend: 0x0, symName: __ZNSt3__16vectorIdNS_9allocatorIdEEE7__allocB7v160006Ev, symObjAddr: 0x1540, symBinAddr: 0x100001CE0, symSize: 0x20 }
  - { offsetInCU: 0xE99C, offset: 0xE99C, size: 0x8, addend: 0x0, symName: __ZNKSt3__16vectorIdNS_9allocatorIdEEE8capacityB7v160006Ev, symObjAddr: 0x1560, symBinAddr: 0x100001D00, symSize: 0x30 }
  - { offsetInCU: 0xE9C2, offset: 0xE9C2, size: 0x8, addend: 0x0, symName: __ZNKSt3__16vectorIdNS_9allocatorIdEEE31__annotate_contiguous_containerB7v160006EPKvS5_S5_S5_, symObjAddr: 0x1590, symBinAddr: 0x100001D30, symSize: 0x20 }
  - { offsetInCU: 0xEA14, offset: 0xEA14, size: 0x8, addend: 0x0, symName: __ZNKSt3__16vectorIdNS_9allocatorIdEEE4dataB7v160006Ev, symObjAddr: 0x15B0, symBinAddr: 0x100001D50, symSize: 0x20 }
  - { offsetInCU: 0xEA3A, offset: 0xEA3A, size: 0x8, addend: 0x0, symName: __ZNKSt3__16vectorIdNS_9allocatorIdEEE4sizeB7v160006Ev, symObjAddr: 0x15D0, symBinAddr: 0x100001D70, symSize: 0x20 }
  - { offsetInCU: 0xEA60, offset: 0xEA60, size: 0x8, addend: 0x0, symName: __ZNSt3__16vectorIdNS_9allocatorIdEEE22__base_destruct_at_endB7v160006EPd, symObjAddr: 0x1600, symBinAddr: 0x100001DA0, symSize: 0x80 }
  - { offsetInCU: 0xEAA4, offset: 0xEAA4, size: 0x8, addend: 0x0, symName: __ZNSt3__116allocator_traitsINS_9allocatorIdEEE7destroyB7v160006IdvEEvRS2_PT_, symObjAddr: 0x1680, symBinAddr: 0x100001E20, symSize: 0x30 }
  - { offsetInCU: 0xEAE1, offset: 0xEAE1, size: 0x8, addend: 0x0, symName: __ZNSt3__19allocatorIdE7destroyB7v160006EPd, symObjAddr: 0x16B0, symBinAddr: 0x100001E50, symSize: 0x10 }
  - { offsetInCU: 0xEB15, offset: 0xEB15, size: 0x8, addend: 0x0, symName: __ZNSt3__19allocatorIdE10deallocateB7v160006EPdm, symObjAddr: 0x16C0, symBinAddr: 0x100001E60, symSize: 0x40 }
  - { offsetInCU: 0xEB57, offset: 0xEB57, size: 0x8, addend: 0x0, symName: __ZNSt3__117__compressed_pairIPdNS_9allocatorIdEEE6secondB7v160006Ev, symObjAddr: 0x1770, symBinAddr: 0x100001F10, symSize: 0x20 }
  - { offsetInCU: 0xEB7D, offset: 0xEB7D, size: 0x8, addend: 0x0, symName: __ZNSt3__122__compressed_pair_elemINS_9allocatorIdEELi1ELb1EE5__getB7v160006Ev, symObjAddr: 0x1790, symBinAddr: 0x100001F30, symSize: 0x10 }
  - { offsetInCU: 0xEBA3, offset: 0xEBA3, size: 0x8, addend: 0x0, symName: __ZNKSt3__16vectorIdNS_9allocatorIdEEE9__end_capB7v160006Ev, symObjAddr: 0x17A0, symBinAddr: 0x100001F40, symSize: 0x20 }
  - { offsetInCU: 0xEBC9, offset: 0xEBC9, size: 0x8, addend: 0x0, symName: __ZNKSt3__117__compressed_pairIPdNS_9allocatorIdEEE5firstB7v160006Ev, symObjAddr: 0x17C0, symBinAddr: 0x100001F60, symSize: 0x20 }
  - { offsetInCU: 0xEBEF, offset: 0xEBEF, size: 0x8, addend: 0x0, symName: __ZNKSt3__122__compressed_pair_elemIPdLi0ELb0EE5__getB7v160006Ev, symObjAddr: 0x17E0, symBinAddr: 0x100001F80, symSize: 0x10 }
  - { offsetInCU: 0xEC15, offset: 0xEC15, size: 0x8, addend: 0x0, symName: __ZNSt3__16vectorIdNS_9allocatorIdEEE9__end_capB7v160006Ev, symObjAddr: 0x17F0, symBinAddr: 0x100001F90, symSize: 0x20 }
  - { offsetInCU: 0xEC40, offset: 0xEC40, size: 0x8, addend: 0x0, symName: __ZNSt3__16vectorIdNS_9allocatorIdEEE22__construct_one_at_endB7v160006IJdEEEvDpOT_, symObjAddr: 0x1810, symBinAddr: 0x100001FB0, symSize: 0x90 }
  - { offsetInCU: 0xEC8F, offset: 0xEC8F, size: 0x8, addend: 0x0, symName: __ZNSt3__16vectorIdNS_9allocatorIdEEE21__push_back_slow_pathIdEEvOT_, symObjAddr: 0x18A0, symBinAddr: 0x100002040, symSize: 0xD0 }
  - { offsetInCU: 0xECED, offset: 0xECED, size: 0x8, addend: 0x0, symName: __ZNSt3__117__compressed_pairIPdNS_9allocatorIdEEE5firstB7v160006Ev, symObjAddr: 0x1970, symBinAddr: 0x100002110, symSize: 0x20 }
  - { offsetInCU: 0xED13, offset: 0xED13, size: 0x8, addend: 0x0, symName: __ZNSt3__122__compressed_pair_elemIPdLi0ELb0EE5__getB7v160006Ev, symObjAddr: 0x1990, symBinAddr: 0x100002130, symSize: 0x10 }
  - { offsetInCU: 0xED52, offset: 0xED52, size: 0x8, addend: 0x0, symName: __ZNSt3__16vectorIdNS_9allocatorIdEEE21_ConstructTransactionC1B7v160006ERS3_m, symObjAddr: 0x19A0, symBinAddr: 0x100002140, symSize: 0x30 }
  - { offsetInCU: 0xED9A, offset: 0xED9A, size: 0x8, addend: 0x0, symName: __ZNSt3__116allocator_traitsINS_9allocatorIdEEE9constructB7v160006IdJdEvEEvRS2_PT_DpOT0_, symObjAddr: 0x19D0, symBinAddr: 0x100002170, symSize: 0x30 }
  - { offsetInCU: 0xEDF1, offset: 0xEDF1, size: 0x8, addend: 0x0, symName: __ZNSt3__16vectorIdNS_9allocatorIdEEE21_ConstructTransactionD1B7v160006Ev, symObjAddr: 0x1A00, symBinAddr: 0x1000021A0, symSize: 0x20 }
  - { offsetInCU: 0xEE1B, offset: 0xEE1B, size: 0x8, addend: 0x0, symName: __ZNSt3__16vectorIdNS_9allocatorIdEEE21_ConstructTransactionC2B7v160006ERS3_m, symObjAddr: 0x1A20, symBinAddr: 0x1000021C0, symSize: 0x40 }
  - { offsetInCU: 0xEE63, offset: 0xEE63, size: 0x8, addend: 0x0, symName: __ZNSt3__19allocatorIdE9constructB7v160006IdJdEEEvPT_DpOT0_, symObjAddr: 0x1A60, symBinAddr: 0x100002200, symSize: 0x30 }
  - { offsetInCU: 0xEEB9, offset: 0xEEB9, size: 0x8, addend: 0x0, symName: __ZNSt3__16vectorIdNS_9allocatorIdEEE21_ConstructTransactionD2B7v160006Ev, symObjAddr: 0x1A90, symBinAddr: 0x100002230, symSize: 0x20 }
  - { offsetInCU: 0xEEE3, offset: 0xEEE3, size: 0x8, addend: 0x0, symName: __ZNKSt3__16vectorIdNS_9allocatorIdEEE11__recommendB7v160006Em, symObjAddr: 0x1AB0, symBinAddr: 0x100002250, symSize: 0xA0 }
  - { offsetInCU: 0xEF38, offset: 0xEF38, size: 0x8, addend: 0x0, symName: __ZNSt3__114__split_bufferIdRNS_9allocatorIdEEEC1EmmS3_, symObjAddr: 0x1B50, symBinAddr: 0x1000022F0, symSize: 0x40 }
  - { offsetInCU: 0xEF8E, offset: 0xEF8E, size: 0x8, addend: 0x0, symName: __ZNSt3__114__split_bufferIdRNS_9allocatorIdEEED1Ev, symObjAddr: 0x1CC0, symBinAddr: 0x100002460, symSize: 0x20 }
  - { offsetInCU: 0xEFBA, offset: 0xEFBA, size: 0x8, addend: 0x0, symName: __ZNKSt3__16vectorIdNS_9allocatorIdEEE8max_sizeEv, symObjAddr: 0x1CE0, symBinAddr: 0x100002480, symSize: 0x60 }
  - { offsetInCU: 0xEFE2, offset: 0xEFE2, size: 0x8, addend: 0x0, symName: __ZNKSt3__16vectorIdNS_9allocatorIdEEE20__throw_length_errorB7v160006Ev, symObjAddr: 0x1D40, symBinAddr: 0x1000024E0, symSize: 0x20 }
  - { offsetInCU: 0xF012, offset: 0xF012, size: 0x8, addend: 0x0, symName: __ZNSt3__116allocator_traitsINS_9allocatorIdEEE8max_sizeB7v160006IS2_vEEmRKS2_, symObjAddr: 0x1DC0, symBinAddr: 0x100002560, symSize: 0x20 }
  - { offsetInCU: 0xF040, offset: 0xF040, size: 0x8, addend: 0x0, symName: __ZNKSt3__16vectorIdNS_9allocatorIdEEE7__allocB7v160006Ev, symObjAddr: 0x1DE0, symBinAddr: 0x100002580, symSize: 0x20 }
  - { offsetInCU: 0xF066, offset: 0xF066, size: 0x8, addend: 0x0, symName: __ZNSt3__114numeric_limitsIlE3maxB7v160006Ev, symObjAddr: 0x1E00, symBinAddr: 0x1000025A0, symSize: 0x10 }
  - { offsetInCU: 0xF08E, offset: 0xF08E, size: 0x8, addend: 0x0, symName: __ZNKSt3__16__lessImmEclB7v160006ERKmS3_, symObjAddr: 0x1E60, symBinAddr: 0x100002600, symSize: 0x30 }
  - { offsetInCU: 0xF0D0, offset: 0xF0D0, size: 0x8, addend: 0x0, symName: __ZNKSt3__19allocatorIdE8max_sizeB7v160006Ev, symObjAddr: 0x1E90, symBinAddr: 0x100002630, symSize: 0x20 }
  - { offsetInCU: 0xF0F6, offset: 0xF0F6, size: 0x8, addend: 0x0, symName: __ZNKSt3__117__compressed_pairIPdNS_9allocatorIdEEE6secondB7v160006Ev, symObjAddr: 0x1EB0, symBinAddr: 0x100002650, symSize: 0x20 }
  - { offsetInCU: 0xF11C, offset: 0xF11C, size: 0x8, addend: 0x0, symName: __ZNKSt3__122__compressed_pair_elemINS_9allocatorIdEELi1ELb1EE5__getB7v160006Ev, symObjAddr: 0x1ED0, symBinAddr: 0x100002670, symSize: 0x10 }
  - { offsetInCU: 0xF142, offset: 0xF142, size: 0x8, addend: 0x0, symName: __ZNSt3__123__libcpp_numeric_limitsIlLb1EE3maxB7v160006Ev, symObjAddr: 0x1EE0, symBinAddr: 0x100002680, symSize: 0x10 }
  - { offsetInCU: 0xF156, offset: 0xF156, size: 0x8, addend: 0x0, symName: __ZNSt12length_errorC1B7v160006EPKc, symObjAddr: 0x1F60, symBinAddr: 0x100002700, symSize: 0x30 }
  - { offsetInCU: 0xF18E, offset: 0xF18E, size: 0x8, addend: 0x0, symName: __ZNSt12length_errorC2B7v160006EPKc, symObjAddr: 0x1F90, symBinAddr: 0x100002730, symSize: 0x40 }
  - { offsetInCU: 0xF1C6, offset: 0xF1C6, size: 0x8, addend: 0x0, symName: __ZNSt3__114__split_bufferIdRNS_9allocatorIdEEEC2EmmS3_, symObjAddr: 0x2020, symBinAddr: 0x1000027C0, symSize: 0xD0 }
  - { offsetInCU: 0xF239, offset: 0xF239, size: 0x8, addend: 0x0, symName: __ZNSt3__117__compressed_pairIPdRNS_9allocatorIdEEEC1B7v160006IDnS4_EEOT_OT0_, symObjAddr: 0x20F0, symBinAddr: 0x100002890, symSize: 0x30 }
  - { offsetInCU: 0xF291, offset: 0xF291, size: 0x8, addend: 0x0, symName: __ZNSt3__114__split_bufferIdRNS_9allocatorIdEEE7__allocB7v160006Ev, symObjAddr: 0x2160, symBinAddr: 0x100002900, symSize: 0x20 }
  - { offsetInCU: 0xF2B7, offset: 0xF2B7, size: 0x8, addend: 0x0, symName: __ZNSt3__114__split_bufferIdRNS_9allocatorIdEEE9__end_capB7v160006Ev, symObjAddr: 0x2180, symBinAddr: 0x100002920, symSize: 0x20 }
  - { offsetInCU: 0xF2DD, offset: 0xF2DD, size: 0x8, addend: 0x0, symName: __ZNSt3__117__compressed_pairIPdRNS_9allocatorIdEEEC2B7v160006IDnS4_EEOT_OT0_, symObjAddr: 0x21A0, symBinAddr: 0x100002940, symSize: 0x40 }
  - { offsetInCU: 0xF335, offset: 0xF335, size: 0x8, addend: 0x0, symName: __ZNSt3__122__compressed_pair_elemIRNS_9allocatorIdEELi1ELb0EEC2B7v160006IS3_vEEOT_, symObjAddr: 0x21E0, symBinAddr: 0x100002980, symSize: 0x20 }
  - { offsetInCU: 0xF377, offset: 0xF377, size: 0x8, addend: 0x0, symName: __ZNSt3__19allocatorIdE8allocateB7v160006Em, symObjAddr: 0x2200, symBinAddr: 0x1000029A0, symSize: 0x50 }
  - { offsetInCU: 0xF3AB, offset: 0xF3AB, size: 0x8, addend: 0x0, symName: __ZNSt3__117__compressed_pairIPdRNS_9allocatorIdEEE6secondB7v160006Ev, symObjAddr: 0x22D0, symBinAddr: 0x100002A70, symSize: 0x20 }
  - { offsetInCU: 0xF3D1, offset: 0xF3D1, size: 0x8, addend: 0x0, symName: __ZNSt3__122__compressed_pair_elemIRNS_9allocatorIdEELi1ELb0EE5__getB7v160006Ev, symObjAddr: 0x22F0, symBinAddr: 0x100002A90, symSize: 0x20 }
  - { offsetInCU: 0xF3F7, offset: 0xF3F7, size: 0x8, addend: 0x0, symName: __ZNSt3__117__compressed_pairIPdRNS_9allocatorIdEEE5firstB7v160006Ev, symObjAddr: 0x2310, symBinAddr: 0x100002AB0, symSize: 0x20 }
  - { offsetInCU: 0xF41D, offset: 0xF41D, size: 0x8, addend: 0x0, symName: __ZNSt3__116reverse_iteratorIPdEC1B7v160006ES1_, symObjAddr: 0x23A0, symBinAddr: 0x100002B40, symSize: 0x30 }
  - { offsetInCU: 0xF455, offset: 0xF455, size: 0x8, addend: 0x0, symName: __ZNKSt3__116reverse_iteratorIPdE4baseB7v160006Ev, symObjAddr: 0x23D0, symBinAddr: 0x100002B70, symSize: 0x20 }
  - { offsetInCU: 0xF47B, offset: 0xF47B, size: 0x8, addend: 0x0, symName: __ZNKSt3__16vectorIdNS_9allocatorIdEEE14__annotate_newB7v160006Em, symObjAddr: 0x2430, symBinAddr: 0x100002BD0, symSize: 0xB0 }
  - { offsetInCU: 0xF4D3, offset: 0xF4D3, size: 0x8, addend: 0x0, symName: __ZNKSt3__111__move_loopINS_17_ClassicAlgPolicyEEclB7v160006INS_16reverse_iteratorIPdEES6_S6_EENS_4pairIT_T1_EES8_T0_S9_, symObjAddr: 0x2930, symBinAddr: 0x1000030D0, symSize: 0xA0 }
  - { offsetInCU: 0xF53E, offset: 0xF53E, size: 0x8, addend: 0x0, symName: __ZNSt3__18_IterOpsINS_17_ClassicAlgPolicyEE11__iter_moveB7v160006IRNS_16reverse_iteratorIPdEEEENS_9enable_ifIXsr12is_referenceIDTdeclsr3stdE7declvalIRT_EEEEE5valueEDTclsr3stdE4movedeclsr3stdE7declvalISA_EEEEE4typeEOS9_, symObjAddr: 0x2B50, symBinAddr: 0x1000032F0, symSize: 0x20 }
  - { offsetInCU: 0xF56A, offset: 0xF56A, size: 0x8, addend: 0x0, symName: __ZNKSt3__116reverse_iteratorIPdEdeB7v160006Ev, symObjAddr: 0x2B70, symBinAddr: 0x100003310, symSize: 0x30 }
  - { offsetInCU: 0xF59E, offset: 0xF59E, size: 0x8, addend: 0x0, symName: __ZNSt3__116reverse_iteratorIPdEppB7v160006Ev, symObjAddr: 0x2BA0, symBinAddr: 0x100003340, symSize: 0x20 }
  - { offsetInCU: 0xF5C4, offset: 0xF5C4, size: 0x8, addend: 0x0, symName: __ZNSt3__18_IterOpsINS_17_ClassicAlgPolicyEE25__validate_iter_referenceB7v160006IRNS_16reverse_iteratorIPdEEEEvv, symObjAddr: 0x2BC0, symBinAddr: 0x100003360, symSize: 0x10 }
  - { offsetInCU: 0xF5E2, offset: 0xF5E2, size: 0x8, addend: 0x0, symName: __ZNSt3__118__unwrap_iter_implINS_16reverse_iteratorIPdEELb0EE8__unwrapB7v160006ES3_, symObjAddr: 0x2BD0, symBinAddr: 0x100003370, symSize: 0x20 }
  - { offsetInCU: 0xF60A, offset: 0xF60A, size: 0x8, addend: 0x0, symName: __ZNSt3__14pairINS_16reverse_iteratorIPdEES3_EC1B7v160006IS3_S3_LPv0EEEOT_OT0_, symObjAddr: 0x2BF0, symBinAddr: 0x100003390, symSize: 0x30 }
  - { offsetInCU: 0xF668, offset: 0xF668, size: 0x8, addend: 0x0, symName: __ZNSt3__14pairINS_16reverse_iteratorIPdEES3_EC2B7v160006IS3_S3_LPv0EEEOT_OT0_, symObjAddr: 0x2C20, symBinAddr: 0x1000033C0, symSize: 0x40 }
  - { offsetInCU: 0xF6C6, offset: 0xF6C6, size: 0x8, addend: 0x0, symName: __ZNSt3__118__unwrap_iter_implINS_16reverse_iteratorIPdEELb0EE8__rewrapB7v160006ES3_S3_, symObjAddr: 0x2C60, symBinAddr: 0x100003400, symSize: 0x30 }
  - { offsetInCU: 0xF6F4, offset: 0xF6F4, size: 0x8, addend: 0x0, symName: __ZNSt3__116reverse_iteratorIPdEC2B7v160006ES1_, symObjAddr: 0x2C90, symBinAddr: 0x100003430, symSize: 0x30 }
  - { offsetInCU: 0xF72C, offset: 0xF72C, size: 0x8, addend: 0x0, symName: __ZNSt3__114__split_bufferIdRNS_9allocatorIdEEED2Ev, symObjAddr: 0x2CC0, symBinAddr: 0x100003460, symSize: 0x70 }
  - { offsetInCU: 0xF758, offset: 0xF758, size: 0x8, addend: 0x0, symName: __ZNSt3__114__split_bufferIdRNS_9allocatorIdEEE5clearB7v160006Ev, symObjAddr: 0x2D30, symBinAddr: 0x1000034D0, symSize: 0x20 }
  - { offsetInCU: 0xF77E, offset: 0xF77E, size: 0x8, addend: 0x0, symName: __ZNKSt3__114__split_bufferIdRNS_9allocatorIdEEE8capacityB7v160006Ev, symObjAddr: 0x2D50, symBinAddr: 0x1000034F0, symSize: 0x30 }
  - { offsetInCU: 0xF7A4, offset: 0xF7A4, size: 0x8, addend: 0x0, symName: __ZNSt3__114__split_bufferIdRNS_9allocatorIdEEE17__destruct_at_endB7v160006EPd, symObjAddr: 0x2D80, symBinAddr: 0x100003520, symSize: 0x30 }
  - { offsetInCU: 0xF7D8, offset: 0xF7D8, size: 0x8, addend: 0x0, symName: __ZNSt3__114__split_bufferIdRNS_9allocatorIdEEE17__destruct_at_endB7v160006EPdNS_17integral_constantIbLb0EEE, symObjAddr: 0x2DB0, symBinAddr: 0x100003550, symSize: 0x80 }
  - { offsetInCU: 0xF819, offset: 0xF819, size: 0x8, addend: 0x0, symName: __ZNKSt3__114__split_bufferIdRNS_9allocatorIdEEE9__end_capB7v160006Ev, symObjAddr: 0x2E30, symBinAddr: 0x1000035D0, symSize: 0x20 }
  - { offsetInCU: 0xF83F, offset: 0xF83F, size: 0x8, addend: 0x0, symName: __ZNKSt3__117__compressed_pairIPdRNS_9allocatorIdEEE5firstB7v160006Ev, symObjAddr: 0x2E50, symBinAddr: 0x1000035F0, symSize: 0x20 }
  - { offsetInCU: 0xF865, offset: 0xF865, size: 0x8, addend: 0x0, symName: __ZNSt3__16vectorINS_4pairI5PointdEENS_9allocatorIS3_EEEC2B7v160006Ev, symObjAddr: 0x2E70, symBinAddr: 0x100003610, symSize: 0x60 }
  - { offsetInCU: 0xF88F, offset: 0xF88F, size: 0x8, addend: 0x0, symName: __ZNSt3__117__compressed_pairIPNS_4pairI5PointdEENS_9allocatorIS3_EEEC1B7v160006IDnNS_18__default_init_tagEEEOT_OT0_, symObjAddr: 0x2ED0, symBinAddr: 0x100003670, symSize: 0x30 }
  - { offsetInCU: 0xF8E7, offset: 0xF8E7, size: 0x8, addend: 0x0, symName: __ZNSt3__117__compressed_pairIPNS_4pairI5PointdEENS_9allocatorIS3_EEEC2B7v160006IDnNS_18__default_init_tagEEEOT_OT0_, symObjAddr: 0x2F10, symBinAddr: 0x1000036B0, symSize: 0x40 }
  - { offsetInCU: 0xF93F, offset: 0xF93F, size: 0x8, addend: 0x0, symName: __ZNSt3__122__compressed_pair_elemIPNS_4pairI5PointdEELi0ELb0EEC2B7v160006IDnvEEOT_, symObjAddr: 0x2F50, symBinAddr: 0x1000036F0, symSize: 0x20 }
  - { offsetInCU: 0xF981, offset: 0xF981, size: 0x8, addend: 0x0, symName: __ZNSt3__122__compressed_pair_elemINS_9allocatorINS_4pairI5PointdEEEELi1ELb1EEC2B7v160006ENS_18__default_init_tagE, symObjAddr: 0x2F70, symBinAddr: 0x100003710, symSize: 0x20 }
  - { offsetInCU: 0xF9B6, offset: 0xF9B6, size: 0x8, addend: 0x0, symName: __ZNSt3__19allocatorINS_4pairI5PointdEEEC2B7v160006Ev, symObjAddr: 0x2F90, symBinAddr: 0x100003730, symSize: 0x20 }
  - { offsetInCU: 0xF9E0, offset: 0xF9E0, size: 0x8, addend: 0x0, symName: __ZNSt3__116__non_trivial_ifILb1ENS_9allocatorINS_4pairI5PointdEEEEEC2B7v160006Ev, symObjAddr: 0x2FB0, symBinAddr: 0x100003750, symSize: 0x10 }
  - { offsetInCU: 0xFA0A, offset: 0xFA0A, size: 0x8, addend: 0x0, symName: __ZNSt3__16vectorINS_4pairI5PointdEENS_9allocatorIS3_EEED2B7v160006Ev, symObjAddr: 0x2FC0, symBinAddr: 0x100003760, symSize: 0x40 }
  - { offsetInCU: 0xFA34, offset: 0xFA34, size: 0x8, addend: 0x0, symName: __ZNSt3__16vectorINS_4pairI5PointdEENS_9allocatorIS3_EEE16__destroy_vectorC1ERS6_, symObjAddr: 0x3000, symBinAddr: 0x1000037A0, symSize: 0x30 }
  - { offsetInCU: 0xFA6D, offset: 0xFA6D, size: 0x8, addend: 0x0, symName: __ZNSt3__16vectorINS_4pairI5PointdEENS_9allocatorIS3_EEE16__destroy_vectorclB7v160006Ev, symObjAddr: 0x3030, symBinAddr: 0x1000037D0, symSize: 0x90 }
  - { offsetInCU: 0xFA93, offset: 0xFA93, size: 0x8, addend: 0x0, symName: __ZNSt3__16vectorINS_4pairI5PointdEENS_9allocatorIS3_EEE16__destroy_vectorC2ERS6_, symObjAddr: 0x30C0, symBinAddr: 0x100003860, symSize: 0x20 }
  - { offsetInCU: 0xFACC, offset: 0xFACC, size: 0x8, addend: 0x0, symName: __ZNKSt3__16vectorINS_4pairI5PointdEENS_9allocatorIS3_EEE17__annotate_deleteB7v160006Ev, symObjAddr: 0x30E0, symBinAddr: 0x100003880, symSize: 0xB0 }
  - { offsetInCU: 0xFAF2, offset: 0xFAF2, size: 0x8, addend: 0x0, symName: __ZNSt3__16vectorINS_4pairI5PointdEENS_9allocatorIS3_EEE7__clearB7v160006Ev, symObjAddr: 0x31A0, symBinAddr: 0x100003940, symSize: 0x20 }
  - { offsetInCU: 0xFB18, offset: 0xFB18, size: 0x8, addend: 0x0, symName: __ZNSt3__116allocator_traitsINS_9allocatorINS_4pairI5PointdEEEEE10deallocateB7v160006ERS5_PS4_m, symObjAddr: 0x31C0, symBinAddr: 0x100003960, symSize: 0x30 }
  - { offsetInCU: 0xFB5A, offset: 0xFB5A, size: 0x8, addend: 0x0, symName: __ZNSt3__16vectorINS_4pairI5PointdEENS_9allocatorIS3_EEE7__allocB7v160006Ev, symObjAddr: 0x31F0, symBinAddr: 0x100003990, symSize: 0x20 }
  - { offsetInCU: 0xFB80, offset: 0xFB80, size: 0x8, addend: 0x0, symName: __ZNKSt3__16vectorINS_4pairI5PointdEENS_9allocatorIS3_EEE8capacityB7v160006Ev, symObjAddr: 0x3210, symBinAddr: 0x1000039B0, symSize: 0x30 }
  - { offsetInCU: 0xFBA6, offset: 0xFBA6, size: 0x8, addend: 0x0, symName: __ZNKSt3__16vectorINS_4pairI5PointdEENS_9allocatorIS3_EEE31__annotate_contiguous_containerB7v160006EPKvS8_S8_S8_, symObjAddr: 0x3240, symBinAddr: 0x1000039E0, symSize: 0x20 }
  - { offsetInCU: 0xFBF8, offset: 0xFBF8, size: 0x8, addend: 0x0, symName: __ZNKSt3__16vectorINS_4pairI5PointdEENS_9allocatorIS3_EEE4dataB7v160006Ev, symObjAddr: 0x3260, symBinAddr: 0x100003A00, symSize: 0x20 }
  - { offsetInCU: 0xFC1E, offset: 0xFC1E, size: 0x8, addend: 0x0, symName: __ZNKSt3__16vectorINS_4pairI5PointdEENS_9allocatorIS3_EEE4sizeB7v160006Ev, symObjAddr: 0x3280, symBinAddr: 0x100003A20, symSize: 0x20 }
  - { offsetInCU: 0xFC44, offset: 0xFC44, size: 0x8, addend: 0x0, symName: __ZNSt3__16vectorINS_4pairI5PointdEENS_9allocatorIS3_EEE22__base_destruct_at_endB7v160006EPS3_, symObjAddr: 0x32B0, symBinAddr: 0x100003A50, symSize: 0x80 }
  - { offsetInCU: 0xFC88, offset: 0xFC88, size: 0x8, addend: 0x0, symName: __ZNSt3__116allocator_traitsINS_9allocatorINS_4pairI5PointdEEEEE7destroyB7v160006IS4_vEEvRS5_PT_, symObjAddr: 0x3330, symBinAddr: 0x100003AD0, symSize: 0x30 }
  - { offsetInCU: 0xFCC5, offset: 0xFCC5, size: 0x8, addend: 0x0, symName: __ZNSt3__19allocatorINS_4pairI5PointdEEE7destroyB7v160006EPS3_, symObjAddr: 0x3360, symBinAddr: 0x100003B00, symSize: 0x10 }
  - { offsetInCU: 0xFCF9, offset: 0xFCF9, size: 0x8, addend: 0x0, symName: __ZNSt3__19allocatorINS_4pairI5PointdEEE10deallocateB7v160006EPS3_m, symObjAddr: 0x3370, symBinAddr: 0x100003B10, symSize: 0x40 }
  - { offsetInCU: 0xFD3B, offset: 0xFD3B, size: 0x8, addend: 0x0, symName: __ZNSt3__117__compressed_pairIPNS_4pairI5PointdEENS_9allocatorIS3_EEE6secondB7v160006Ev, symObjAddr: 0x33B0, symBinAddr: 0x100003B50, symSize: 0x20 }
  - { offsetInCU: 0xFD61, offset: 0xFD61, size: 0x8, addend: 0x0, symName: __ZNSt3__122__compressed_pair_elemINS_9allocatorINS_4pairI5PointdEEEELi1ELb1EE5__getB7v160006Ev, symObjAddr: 0x33D0, symBinAddr: 0x100003B70, symSize: 0x10 }
  - { offsetInCU: 0xFD87, offset: 0xFD87, size: 0x8, addend: 0x0, symName: __ZNKSt3__16vectorINS_4pairI5PointdEENS_9allocatorIS3_EEE9__end_capB7v160006Ev, symObjAddr: 0x33E0, symBinAddr: 0x100003B80, symSize: 0x20 }
  - { offsetInCU: 0xFDAD, offset: 0xFDAD, size: 0x8, addend: 0x0, symName: __ZNKSt3__117__compressed_pairIPNS_4pairI5PointdEENS_9allocatorIS3_EEE5firstB7v160006Ev, symObjAddr: 0x3400, symBinAddr: 0x100003BA0, symSize: 0x20 }
  - { offsetInCU: 0xFDD3, offset: 0xFDD3, size: 0x8, addend: 0x0, symName: __ZNKSt3__122__compressed_pair_elemIPNS_4pairI5PointdEELi0ELb0EE5__getB7v160006Ev, symObjAddr: 0x3420, symBinAddr: 0x100003BC0, symSize: 0x10 }
  - { offsetInCU: 0xFDF9, offset: 0xFDF9, size: 0x8, addend: 0x0, symName: __ZNSt3__16vectorINS_4pairI5PointdEENS_9allocatorIS3_EEE9__end_capB7v160006Ev, symObjAddr: 0x3430, symBinAddr: 0x100003BD0, symSize: 0x20 }
  - { offsetInCU: 0xFE1F, offset: 0xFE1F, size: 0x8, addend: 0x0, symName: __ZNSt3__16vectorINS_4pairI5PointdEENS_9allocatorIS3_EEE22__construct_one_at_endB7v160006IJS3_EEEvDpOT_, symObjAddr: 0x3450, symBinAddr: 0x100003BF0, symSize: 0x90 }
  - { offsetInCU: 0xFE6E, offset: 0xFE6E, size: 0x8, addend: 0x0, symName: __ZNSt3__16vectorINS_4pairI5PointdEENS_9allocatorIS3_EEE21__push_back_slow_pathIS3_EEvOT_, symObjAddr: 0x34E0, symBinAddr: 0x100003C80, symSize: 0xD0 }
  - { offsetInCU: 0xFECC, offset: 0xFECC, size: 0x8, addend: 0x0, symName: __ZNSt3__117__compressed_pairIPNS_4pairI5PointdEENS_9allocatorIS3_EEE5firstB7v160006Ev, symObjAddr: 0x35B0, symBinAddr: 0x100003D50, symSize: 0x20 }
  - { offsetInCU: 0xFEF2, offset: 0xFEF2, size: 0x8, addend: 0x0, symName: __ZNSt3__122__compressed_pair_elemIPNS_4pairI5PointdEELi0ELb0EE5__getB7v160006Ev, symObjAddr: 0x35D0, symBinAddr: 0x100003D70, symSize: 0x10 }
  - { offsetInCU: 0xFF31, offset: 0xFF31, size: 0x8, addend: 0x0, symName: __ZNSt3__16vectorINS_4pairI5PointdEENS_9allocatorIS3_EEE21_ConstructTransactionC1B7v160006ERS6_m, symObjAddr: 0x35E0, symBinAddr: 0x100003D80, symSize: 0x30 }
  - { offsetInCU: 0xFF79, offset: 0xFF79, size: 0x8, addend: 0x0, symName: __ZNSt3__116allocator_traitsINS_9allocatorINS_4pairI5PointdEEEEE9constructB7v160006IS4_JS4_EvEEvRS5_PT_DpOT0_, symObjAddr: 0x3610, symBinAddr: 0x100003DB0, symSize: 0x30 }
  - { offsetInCU: 0xFFD0, offset: 0xFFD0, size: 0x8, addend: 0x0, symName: __ZNSt3__16vectorINS_4pairI5PointdEENS_9allocatorIS3_EEE21_ConstructTransactionD1B7v160006Ev, symObjAddr: 0x3640, symBinAddr: 0x100003DE0, symSize: 0x20 }
  - { offsetInCU: 0xFFFA, offset: 0xFFFA, size: 0x8, addend: 0x0, symName: __ZNSt3__16vectorINS_4pairI5PointdEENS_9allocatorIS3_EEE21_ConstructTransactionC2B7v160006ERS6_m, symObjAddr: 0x3660, symBinAddr: 0x100003E00, symSize: 0x40 }
  - { offsetInCU: 0x10042, offset: 0x10042, size: 0x8, addend: 0x0, symName: __ZNSt3__19allocatorINS_4pairI5PointdEEE9constructB7v160006IS3_JS3_EEEvPT_DpOT0_, symObjAddr: 0x36A0, symBinAddr: 0x100003E40, symSize: 0x30 }
  - { offsetInCU: 0x10098, offset: 0x10098, size: 0x8, addend: 0x0, symName: __ZNSt3__16vectorINS_4pairI5PointdEENS_9allocatorIS3_EEE21_ConstructTransactionD2B7v160006Ev, symObjAddr: 0x36D0, symBinAddr: 0x100003E70, symSize: 0x20 }
  - { offsetInCU: 0x100C2, offset: 0x100C2, size: 0x8, addend: 0x0, symName: __ZNKSt3__16vectorINS_4pairI5PointdEENS_9allocatorIS3_EEE11__recommendB7v160006Em, symObjAddr: 0x36F0, symBinAddr: 0x100003E90, symSize: 0xA0 }
  - { offsetInCU: 0x10117, offset: 0x10117, size: 0x8, addend: 0x0, symName: __ZNSt3__114__split_bufferINS_4pairI5PointdEERNS_9allocatorIS3_EEEC1EmmS6_, symObjAddr: 0x3790, symBinAddr: 0x100003F30, symSize: 0x40 }
  - { offsetInCU: 0x1016D, offset: 0x1016D, size: 0x8, addend: 0x0, symName: __ZNSt3__114__split_bufferINS_4pairI5PointdEERNS_9allocatorIS3_EEED1Ev, symObjAddr: 0x3900, symBinAddr: 0x1000040A0, symSize: 0x20 }
  - { offsetInCU: 0x10199, offset: 0x10199, size: 0x8, addend: 0x0, symName: __ZNKSt3__16vectorINS_4pairI5PointdEENS_9allocatorIS3_EEE8max_sizeEv, symObjAddr: 0x3920, symBinAddr: 0x1000040C0, symSize: 0x60 }
  - { offsetInCU: 0x101C1, offset: 0x101C1, size: 0x8, addend: 0x0, symName: __ZNKSt3__16vectorINS_4pairI5PointdEENS_9allocatorIS3_EEE20__throw_length_errorB7v160006Ev, symObjAddr: 0x3980, symBinAddr: 0x100004120, symSize: 0x20 }
  - { offsetInCU: 0x101F1, offset: 0x101F1, size: 0x8, addend: 0x0, symName: __ZNSt3__116allocator_traitsINS_9allocatorINS_4pairI5PointdEEEEE8max_sizeB7v160006IS5_vEEmRKS5_, symObjAddr: 0x39A0, symBinAddr: 0x100004140, symSize: 0x20 }
  - { offsetInCU: 0x1021F, offset: 0x1021F, size: 0x8, addend: 0x0, symName: __ZNKSt3__16vectorINS_4pairI5PointdEENS_9allocatorIS3_EEE7__allocB7v160006Ev, symObjAddr: 0x39C0, symBinAddr: 0x100004160, symSize: 0x20 }
  - { offsetInCU: 0x10245, offset: 0x10245, size: 0x8, addend: 0x0, symName: __ZNKSt3__19allocatorINS_4pairI5PointdEEE8max_sizeB7v160006Ev, symObjAddr: 0x39E0, symBinAddr: 0x100004180, symSize: 0x20 }
  - { offsetInCU: 0x1026B, offset: 0x1026B, size: 0x8, addend: 0x0, symName: __ZNKSt3__117__compressed_pairIPNS_4pairI5PointdEENS_9allocatorIS3_EEE6secondB7v160006Ev, symObjAddr: 0x3A00, symBinAddr: 0x1000041A0, symSize: 0x20 }
  - { offsetInCU: 0x10291, offset: 0x10291, size: 0x8, addend: 0x0, symName: __ZNKSt3__122__compressed_pair_elemINS_9allocatorINS_4pairI5PointdEEEELi1ELb1EE5__getB7v160006Ev, symObjAddr: 0x3A20, symBinAddr: 0x1000041C0, symSize: 0x10 }
  - { offsetInCU: 0x102B7, offset: 0x102B7, size: 0x8, addend: 0x0, symName: __ZNSt3__114__split_bufferINS_4pairI5PointdEERNS_9allocatorIS3_EEEC2EmmS6_, symObjAddr: 0x3A30, symBinAddr: 0x1000041D0, symSize: 0xD0 }
  - { offsetInCU: 0x1032A, offset: 0x1032A, size: 0x8, addend: 0x0, symName: __ZNSt3__117__compressed_pairIPNS_4pairI5PointdEERNS_9allocatorIS3_EEEC1B7v160006IDnS7_EEOT_OT0_, symObjAddr: 0x3B00, symBinAddr: 0x1000042A0, symSize: 0x30 }
  - { offsetInCU: 0x10382, offset: 0x10382, size: 0x8, addend: 0x0, symName: __ZNSt3__114__split_bufferINS_4pairI5PointdEERNS_9allocatorIS3_EEE7__allocB7v160006Ev, symObjAddr: 0x3B70, symBinAddr: 0x100004310, symSize: 0x20 }
  - { offsetInCU: 0x103A8, offset: 0x103A8, size: 0x8, addend: 0x0, symName: __ZNSt3__114__split_bufferINS_4pairI5PointdEERNS_9allocatorIS3_EEE9__end_capB7v160006Ev, symObjAddr: 0x3B90, symBinAddr: 0x100004330, symSize: 0x20 }
  - { offsetInCU: 0x103CE, offset: 0x103CE, size: 0x8, addend: 0x0, symName: __ZNSt3__117__compressed_pairIPNS_4pairI5PointdEERNS_9allocatorIS3_EEEC2B7v160006IDnS7_EEOT_OT0_, symObjAddr: 0x3BB0, symBinAddr: 0x100004350, symSize: 0x40 }
  - { offsetInCU: 0x10426, offset: 0x10426, size: 0x8, addend: 0x0, symName: __ZNSt3__122__compressed_pair_elemIRNS_9allocatorINS_4pairI5PointdEEEELi1ELb0EEC2B7v160006IS6_vEEOT_, symObjAddr: 0x3BF0, symBinAddr: 0x100004390, symSize: 0x20 }
  - { offsetInCU: 0x10468, offset: 0x10468, size: 0x8, addend: 0x0, symName: __ZNSt3__19allocatorINS_4pairI5PointdEEE8allocateB7v160006Em, symObjAddr: 0x3C10, symBinAddr: 0x1000043B0, symSize: 0x50 }
  - { offsetInCU: 0x1049C, offset: 0x1049C, size: 0x8, addend: 0x0, symName: __ZNSt3__117__compressed_pairIPNS_4pairI5PointdEERNS_9allocatorIS3_EEE6secondB7v160006Ev, symObjAddr: 0x3C60, symBinAddr: 0x100004400, symSize: 0x20 }
  - { offsetInCU: 0x104C2, offset: 0x104C2, size: 0x8, addend: 0x0, symName: __ZNSt3__122__compressed_pair_elemIRNS_9allocatorINS_4pairI5PointdEEEELi1ELb0EE5__getB7v160006Ev, symObjAddr: 0x3C80, symBinAddr: 0x100004420, symSize: 0x20 }
  - { offsetInCU: 0x104E8, offset: 0x104E8, size: 0x8, addend: 0x0, symName: __ZNSt3__117__compressed_pairIPNS_4pairI5PointdEERNS_9allocatorIS3_EEE5firstB7v160006Ev, symObjAddr: 0x3CA0, symBinAddr: 0x100004440, symSize: 0x20 }
  - { offsetInCU: 0x1050E, offset: 0x1050E, size: 0x8, addend: 0x0, symName: __ZNSt3__116reverse_iteratorIPNS_4pairI5PointdEEEC1B7v160006ES4_, symObjAddr: 0x3E40, symBinAddr: 0x1000045E0, symSize: 0x30 }
  - { offsetInCU: 0x10546, offset: 0x10546, size: 0x8, addend: 0x0, symName: __ZNKSt3__116reverse_iteratorIPNS_4pairI5PointdEEE4baseB7v160006Ev, symObjAddr: 0x3E70, symBinAddr: 0x100004610, symSize: 0x20 }
  - { offsetInCU: 0x1056C, offset: 0x1056C, size: 0x8, addend: 0x0, symName: __ZNKSt3__16vectorINS_4pairI5PointdEENS_9allocatorIS3_EEE14__annotate_newB7v160006Em, symObjAddr: 0x3ED0, symBinAddr: 0x100004670, symSize: 0xB0 }
  - { offsetInCU: 0x105A1, offset: 0x105A1, size: 0x8, addend: 0x0, symName: __ZNSt3__129_AllocatorDestroyRangeReverseINS_9allocatorINS_4pairI5PointdEEEENS_16reverse_iteratorIPS4_EEEC1B7v160006ERS5_RS8_SB_, symObjAddr: 0x3FF0, symBinAddr: 0x100004790, symSize: 0x40 }
  - { offsetInCU: 0x105F8, offset: 0x105F8, size: 0x8, addend: 0x0, symName: __ZNKSt3__116reverse_iteratorIPNS_4pairI5PointdEEEdeB7v160006Ev, symObjAddr: 0x4090, symBinAddr: 0x100004830, symSize: 0x30 }
  - { offsetInCU: 0x1062C, offset: 0x1062C, size: 0x8, addend: 0x0, symName: __ZNSt3__116reverse_iteratorIPNS_4pairI5PointdEEEppB7v160006Ev, symObjAddr: 0x40C0, symBinAddr: 0x100004860, symSize: 0x20 }
  - { offsetInCU: 0x10652, offset: 0x10652, size: 0x8, addend: 0x0, symName: __ZNSt3__128__exception_guard_exceptionsINS_29_AllocatorDestroyRangeReverseINS_9allocatorINS_4pairI5PointdEEEENS_16reverse_iteratorIPS5_EEEEE10__completeB7v160006Ev, symObjAddr: 0x40E0, symBinAddr: 0x100004880, symSize: 0x20 }
  - { offsetInCU: 0x10678, offset: 0x10678, size: 0x8, addend: 0x0, symName: __ZNSt3__128__exception_guard_exceptionsINS_29_AllocatorDestroyRangeReverseINS_9allocatorINS_4pairI5PointdEEEENS_16reverse_iteratorIPS5_EEEEED1B7v160006Ev, symObjAddr: 0x4100, symBinAddr: 0x1000048A0, symSize: 0x20 }
  - { offsetInCU: 0x106A2, offset: 0x106A2, size: 0x8, addend: 0x0, symName: __ZNSt3__128__exception_guard_exceptionsINS_29_AllocatorDestroyRangeReverseINS_9allocatorINS_4pairI5PointdEEEENS_16reverse_iteratorIPS5_EEEEEC1B7v160006ESA_, symObjAddr: 0x4120, symBinAddr: 0x1000048C0, symSize: 0x40 }
  - { offsetInCU: 0x106DA, offset: 0x106DA, size: 0x8, addend: 0x0, symName: __ZNSt3__128__exception_guard_exceptionsINS_29_AllocatorDestroyRangeReverseINS_9allocatorINS_4pairI5PointdEEEENS_16reverse_iteratorIPS5_EEEEEC2B7v160006ESA_, symObjAddr: 0x4160, symBinAddr: 0x100004900, symSize: 0x30 }
  - { offsetInCU: 0x10712, offset: 0x10712, size: 0x8, addend: 0x0, symName: __ZNSt3__129_AllocatorDestroyRangeReverseINS_9allocatorINS_4pairI5PointdEEEENS_16reverse_iteratorIPS4_EEEC2B7v160006ERS5_RS8_SB_, symObjAddr: 0x4190, symBinAddr: 0x100004930, symSize: 0x40 }
  - { offsetInCU: 0x1076E, offset: 0x1076E, size: 0x8, addend: 0x0, symName: __ZNSt3__119__to_address_helperINS_16reverse_iteratorIPNS_4pairI5PointdEEEEvE6__callB7v160006ERKS6_, symObjAddr: 0x41D0, symBinAddr: 0x100004970, symSize: 0x40 }
  - { offsetInCU: 0x10791, offset: 0x10791, size: 0x8, addend: 0x0, symName: __ZNKSt3__116reverse_iteratorIPNS_4pairI5PointdEEEptB7v160006Ev, symObjAddr: 0x4210, symBinAddr: 0x1000049B0, symSize: 0x20 }
  - { offsetInCU: 0x107B7, offset: 0x107B7, size: 0x8, addend: 0x0, symName: __ZNSt3__128__exception_guard_exceptionsINS_29_AllocatorDestroyRangeReverseINS_9allocatorINS_4pairI5PointdEEEENS_16reverse_iteratorIPS5_EEEEED2B7v160006Ev, symObjAddr: 0x4230, symBinAddr: 0x1000049D0, symSize: 0x40 }
  - { offsetInCU: 0x107E1, offset: 0x107E1, size: 0x8, addend: 0x0, symName: __ZNKSt3__129_AllocatorDestroyRangeReverseINS_9allocatorINS_4pairI5PointdEEEENS_16reverse_iteratorIPS4_EEEclB7v160006Ev, symObjAddr: 0x4270, symBinAddr: 0x100004A10, symSize: 0xF0 }
  - { offsetInCU: 0x10808, offset: 0x10808, size: 0x8, addend: 0x0, symName: __ZNSt3__116reverse_iteratorINS0_IPNS_4pairI5PointdEEEEEC1B7v160006ES5_, symObjAddr: 0x43D0, symBinAddr: 0x100004B70, symSize: 0x30 }
  - { offsetInCU: 0x10840, offset: 0x10840, size: 0x8, addend: 0x0, symName: __ZNSt3__116reverse_iteratorINS0_IPNS_4pairI5PointdEEEEEppB7v160006Ev, symObjAddr: 0x4470, symBinAddr: 0x100004C10, symSize: 0x30 }
  - { offsetInCU: 0x10866, offset: 0x10866, size: 0x8, addend: 0x0, symName: __ZNKSt3__116reverse_iteratorINS0_IPNS_4pairI5PointdEEEEE4baseB7v160006Ev, symObjAddr: 0x44A0, symBinAddr: 0x100004C40, symSize: 0x20 }
  - { offsetInCU: 0x10891, offset: 0x10891, size: 0x8, addend: 0x0, symName: __ZNSt3__119__to_address_helperINS_16reverse_iteratorINS1_IPNS_4pairI5PointdEEEEEEvE6__callB7v160006ERKS7_, symObjAddr: 0x44C0, symBinAddr: 0x100004C60, symSize: 0x40 }
  - { offsetInCU: 0x108B4, offset: 0x108B4, size: 0x8, addend: 0x0, symName: __ZNKSt3__116reverse_iteratorINS0_IPNS_4pairI5PointdEEEEEptB7v160006Ev, symObjAddr: 0x4500, symBinAddr: 0x100004CA0, symSize: 0x20 }
  - { offsetInCU: 0x108DA, offset: 0x108DA, size: 0x8, addend: 0x0, symName: __ZNKSt3__116reverse_iteratorINS0_IPNS_4pairI5PointdEEEEEdeB7v160006Ev, symObjAddr: 0x4520, symBinAddr: 0x100004CC0, symSize: 0x40 }
  - { offsetInCU: 0x1090E, offset: 0x1090E, size: 0x8, addend: 0x0, symName: __ZNSt3__116reverse_iteratorIPNS_4pairI5PointdEEEmmB7v160006Ev, symObjAddr: 0x4560, symBinAddr: 0x100004D00, symSize: 0x20 }
  - { offsetInCU: 0x10934, offset: 0x10934, size: 0x8, addend: 0x0, symName: __ZNSt3__116reverse_iteratorINS0_IPNS_4pairI5PointdEEEEEC2B7v160006ES5_, symObjAddr: 0x4580, symBinAddr: 0x100004D20, symSize: 0x40 }
  - { offsetInCU: 0x1096C, offset: 0x1096C, size: 0x8, addend: 0x0, symName: __ZNSt3__116reverse_iteratorIPNS_4pairI5PointdEEEC2B7v160006ES4_, symObjAddr: 0x45C0, symBinAddr: 0x100004D60, symSize: 0x30 }
  - { offsetInCU: 0x109A4, offset: 0x109A4, size: 0x8, addend: 0x0, symName: __ZNSt3__114__split_bufferINS_4pairI5PointdEERNS_9allocatorIS3_EEED2Ev, symObjAddr: 0x45F0, symBinAddr: 0x100004D90, symSize: 0x70 }
  - { offsetInCU: 0x109D0, offset: 0x109D0, size: 0x8, addend: 0x0, symName: __ZNSt3__114__split_bufferINS_4pairI5PointdEERNS_9allocatorIS3_EEE5clearB7v160006Ev, symObjAddr: 0x4660, symBinAddr: 0x100004E00, symSize: 0x20 }
  - { offsetInCU: 0x109F6, offset: 0x109F6, size: 0x8, addend: 0x0, symName: __ZNKSt3__114__split_bufferINS_4pairI5PointdEERNS_9allocatorIS3_EEE8capacityB7v160006Ev, symObjAddr: 0x4680, symBinAddr: 0x100004E20, symSize: 0x30 }
  - { offsetInCU: 0x10A1C, offset: 0x10A1C, size: 0x8, addend: 0x0, symName: __ZNSt3__114__split_bufferINS_4pairI5PointdEERNS_9allocatorIS3_EEE17__destruct_at_endB7v160006EPS3_, symObjAddr: 0x46B0, symBinAddr: 0x100004E50, symSize: 0x30 }
  - { offsetInCU: 0x10A50, offset: 0x10A50, size: 0x8, addend: 0x0, symName: __ZNSt3__114__split_bufferINS_4pairI5PointdEERNS_9allocatorIS3_EEE17__destruct_at_endB7v160006EPS3_NS_17integral_constantIbLb0EEE, symObjAddr: 0x46E0, symBinAddr: 0x100004E80, symSize: 0x80 }
  - { offsetInCU: 0x10A91, offset: 0x10A91, size: 0x8, addend: 0x0, symName: __ZNKSt3__114__split_bufferINS_4pairI5PointdEERNS_9allocatorIS3_EEE9__end_capB7v160006Ev, symObjAddr: 0x4760, symBinAddr: 0x100004F00, symSize: 0x20 }
  - { offsetInCU: 0x10AB7, offset: 0x10AB7, size: 0x8, addend: 0x0, symName: __ZNKSt3__117__compressed_pairIPNS_4pairI5PointdEERNS_9allocatorIS3_EEE5firstB7v160006Ev, symObjAddr: 0x4780, symBinAddr: 0x100004F20, symSize: 0x20 }
  - { offsetInCU: 0x10ADD, offset: 0x10ADD, size: 0x8, addend: 0x0, symName: __ZNSt3__16vectorINS_4pairI5PointdEENS_9allocatorIS3_EEE11__make_iterB7v160006EPS3_, symObjAddr: 0x47A0, symBinAddr: 0x100004F40, symSize: 0x30 }
  - { offsetInCU: 0x10B12, offset: 0x10B12, size: 0x8, addend: 0x0, symName: __ZNSt3__111__wrap_iterIPNS_4pairI5PointdEEEC1B7v160006EPKvS4_, symObjAddr: 0x47D0, symBinAddr: 0x100004F70, symSize: 0x30 }
  - { offsetInCU: 0x10B58, offset: 0x10B58, size: 0x8, addend: 0x0, symName: __ZNSt3__111__wrap_iterIPNS_4pairI5PointdEEEC2B7v160006EPKvS4_, symObjAddr: 0x4800, symBinAddr: 0x100004FA0, symSize: 0x20 }
  - { offsetInCU: 0x10BA3, offset: 0x10BA3, size: 0x8, addend: 0x0, symName: '__ZNSt3__116_UnwrapAlgPolicyIRZ14closestKPointsP5PointiRS1_iE3$_0E10__get_compB7v160006ES5_', symObjAddr: 0x4990, symBinAddr: 0x100005130, symSize: 0x10 }
  - { offsetInCU: 0x10BD0, offset: 0x10BD0, size: 0x8, addend: 0x0, symName: '__ZZ14closestKPointsP5PointiRS_iENK3$_0clERKNSt3__14pairIS_dEES7_', symObjAddr: 0x5050, symBinAddr: 0x1000057F0, symSize: 0x30 }
  - { offsetInCU: 0x10C16, offset: 0x10C16, size: 0x8, addend: 0x0, symName: __ZNSt3__18_IterOpsINS_17_ClassicAlgPolicyEE9iter_swapB7v160006IRPNS_4pairI5PointdEES8_EEvOT_OT0_, symObjAddr: 0x5080, symBinAddr: 0x100005820, symSize: 0x30 }
  - { offsetInCU: 0x10C59, offset: 0x10C59, size: 0x8, addend: 0x0, symName: __ZNSt3__14pairI5PointdE4swapB7v160006ERS2_, symObjAddr: 0x57C0, symBinAddr: 0x100005F60, symSize: 0x40 }
  - { offsetInCU: 0x10C8E, offset: 0x10C8E, size: 0x8, addend: 0x0, symName: __ZNSt3__18_IterOpsINS_17_ClassicAlgPolicyEE11__iter_moveB7v160006IRPNS_4pairI5PointdEEEENS_9enable_ifIXsr12is_referenceIDTdeclsr3stdE7declvalIRT_EEEEE5valueEDTclsr3stdE4movedeclsr3stdE7declvalISB_EEEEE4typeEOSA_, symObjAddr: 0x5970, symBinAddr: 0x100006110, symSize: 0x20 }
  - { offsetInCU: 0x10CBA, offset: 0x10CBA, size: 0x8, addend: 0x0, symName: __ZNSt3__14pairI5PointdEaSB7v160006EOS2_, symObjAddr: 0x5990, symBinAddr: 0x100006130, symSize: 0x30 }
  - { offsetInCU: 0x10CEF, offset: 0x10CEF, size: 0x8, addend: 0x0, symName: __ZNSt3__18_IterOpsINS_17_ClassicAlgPolicyEE25__validate_iter_referenceB7v160006IRPNS_4pairI5PointdEEEEvv, symObjAddr: 0x59C0, symBinAddr: 0x100006160, symSize: 0x10 }
  - { offsetInCU: 0x10D0D, offset: 0x10D0D, size: 0x8, addend: 0x0, symName: __ZNSt3__18_IterOpsINS_17_ClassicAlgPolicyEE4nextB7v160006IPNS_4pairI5PointdEEEET_S8_S8_, symObjAddr: 0x59D0, symBinAddr: 0x100006170, symSize: 0x20 }
  - { offsetInCU: 0x10D44, offset: 0x10D44, size: 0x8, addend: 0x0, symName: __ZNSt3__118__unwrap_iter_implINS_11__wrap_iterIPNS_4pairI5PointdEEEELb1EE8__unwrapB7v160006ES6_, symObjAddr: 0x6240, symBinAddr: 0x1000069E0, symSize: 0x20 }
  - { offsetInCU: 0x10D71, offset: 0x10D71, size: 0x8, addend: 0x0, symName: __ZNSt3__119__to_address_helperINS_11__wrap_iterIPNS_4pairI5PointdEEEEvE6__callB7v160006ERKS6_, symObjAddr: 0x6280, symBinAddr: 0x100006A20, symSize: 0x30 }
  - { offsetInCU: 0x10D94, offset: 0x10D94, size: 0x8, addend: 0x0, symName: __ZNSt3__114pointer_traitsINS_11__wrap_iterIPNS_4pairI5PointdEEEEE10to_addressB7v160006ES6_, symObjAddr: 0x62B0, symBinAddr: 0x100006A50, symSize: 0x30 }
  - { offsetInCU: 0x10DB8, offset: 0x10DB8, size: 0x8, addend: 0x0, symName: __ZNKSt3__111__wrap_iterIPNS_4pairI5PointdEEE4baseB7v160006Ev, symObjAddr: 0x62E0, symBinAddr: 0x100006A80, symSize: 0x11 }
...
